GAS LISTING /tmp/ccS9UYIE.s 			page 1


   1              		.file	"modifikacija.cpp"
   2              		.option pic
   3              		.option norelax
   4              		.text
   5              	.Ltext0:
   6              		.section	.rodata.str1.8,"aMS",@progbits,1
   7              		.align	3
   8              	.LC0:
   9 0000 54687265 		.string	"Thread finished!\n"
   9      61642066 
   9      696E6973 
   9      68656421 
   9      0A00
  10              		.text
  11              		.align	2
  13              	_ZL10workerBodyPv:
  14              	.LFB33:
  15              		.file 1 "test/modifikacija.cpp"
   1:test/modifikacija.cpp **** #include "modifikacija.hpp"
   2:test/modifikacija.cpp **** #include "../h/syscall_c.h"
   3:test/modifikacija.cpp **** #include "printing.hpp"
   4:test/modifikacija.cpp **** #include "../h/tcb.h"
   5:test/modifikacija.cpp **** 
   6:test/modifikacija.cpp **** static volatile bool finished = false;
   7:test/modifikacija.cpp **** static volatile int sum = 0;
   8:test/modifikacija.cpp **** static volatile int n;
   9:test/modifikacija.cpp **** static volatile int red = 0;
  10:test/modifikacija.cpp **** static volatile int **matrix;
  11:test/modifikacija.cpp **** 
  12:test/modifikacija.cpp **** //rad sa matricama
  13:test/modifikacija.cpp **** 
  14:test/modifikacija.cpp **** static void workerBody(void* arg) {
  16              		.loc 1 14 35
  17              		.cfi_startproc
  18              	.LVL0:
  19 0000 130101FF 		addi	sp,sp,-16
  20              		.cfi_def_cfa_offset 16
  21 0004 23341100 		sd	ra,8(sp)
  22 0008 23308100 		sd	s0,0(sp)
  23              		.cfi_offset 1, -8
  24              		.cfi_offset 8, -16
  25 000c 13040101 		addi	s0,sp,16
  26              		.cfi_def_cfa 8, 0
  15:test/modifikacija.cpp ****     for (int i = 0; i < n; i++) {
  27              		.loc 1 15 5
  28              	.LVL1:
  29              	.LBB8:
  30              		.loc 1 15 14 is_stmt 0
  31 0010 93060000 		li	a3,0
  32              	.LVL2:
  33              	.L3:
  34              		.loc 1 15 23 is_stmt 1 discriminator 3
  35              		.loc 1 15 25 is_stmt 0 discriminator 3
  36 0014 97070000 		lw	a5,.LANCHOR0
  36      83A70700 
  37              		.loc 1 15 23 discriminator 3
  38 001c 63D2F604 		ble	a5,a3,.L2
GAS LISTING /tmp/ccS9UYIE.s 			page 2


  16:test/modifikacija.cpp ****         sum += matrix[red][i];
  39              		.loc 1 16 9 is_stmt 1 discriminator 2
  40              		.loc 1 16 23 is_stmt 0 discriminator 2
  41 0020 17070000 		lla	a4,.LANCHOR0
  41      13070700 
  42 0028 83274700 		lw	a5,4(a4)
  43 002c 9B870700 		sext.w	a5,a5
  44              		.loc 1 16 26 discriminator 2
  45 0030 03368700 		ld	a2,8(a4)
  46 0034 93973700 		slli	a5,a5,3
  47 0038 B307F600 		add	a5,a2,a5
  48 003c 83B70700 		ld	a5,0(a5)
  49              		.loc 1 16 29 discriminator 2
  50 0040 13962600 		slli	a2,a3,2
  51 0044 B387C700 		add	a5,a5,a2
  52 0048 83A70700 		lw	a5,0(a5)
  53              		.loc 1 16 13 discriminator 2
  54 004c 03260701 		lw	a2,16(a4)
  55 0050 BB87C700 		addw	a5,a5,a2
  56 0054 2328F700 		sw	a5,16(a4)
  15:test/modifikacija.cpp ****     for (int i = 0; i < n; i++) {
  57              		.loc 1 15 5 is_stmt 1 discriminator 2
  58 0058 9B861600 		addiw	a3,a3,1
  59              	.LVL3:
  60 005c 6FF09FFB 		j	.L3
  61              	.LVL4:
  62              	.L2:
  63              	.LBE8:
  17:test/modifikacija.cpp ****     }
  18:test/modifikacija.cpp ****     printString("Thread finished!\n");
  64              		.loc 1 18 5
  65              		.loc 1 18 16 is_stmt 0
  66 0060 17050000 		lla	a0,.LC0
  66      13050500 
  67              	.LVL5:
  68 0068 97000000 		call	_Z11printStringPKc@plt
  68      E7800000 
  69              	.LVL6:
  19:test/modifikacija.cpp ****     red += 1;
  70              		.loc 1 19 5 is_stmt 1
  71              		.loc 1 19 9 is_stmt 0
  72 0070 17070000 		lla	a4,.LANCHOR0
  72      13070700 
  73 0078 83274700 		lw	a5,4(a4)
  74 007c 9B871700 		addiw	a5,a5,1
  75 0080 2322F700 		sw	a5,4(a4)
  20:test/modifikacija.cpp **** }
  76              		.loc 1 20 1
  77 0084 83308100 		ld	ra,8(sp)
  78              		.cfi_restore 1
  79 0088 03340100 		ld	s0,0(sp)
  80              		.cfi_restore 8
  81              		.cfi_def_cfa 2, 16
  82 008c 13010101 		addi	sp,sp,16
  83              		.cfi_def_cfa_offset 0
  84 0090 67800000 		jr	ra
  85              		.cfi_endproc
GAS LISTING /tmp/ccS9UYIE.s 			page 3


  86              	.LFE33:
  88              		.section	.rodata.str1.8
  89 0012 00000000 		.align	3
  89      0000
  90              	.LC1:
  91 0018 556E6574 		.string	"Uneti velicinu matrice!!! \n"
  91      69207665 
  91      6C696369 
  91      6E75206D 
  91      61747269 
  92 0034 00000000 		.align	3
  93              	.LC2:
  94 0038 54687265 		.string	"Thread created with number: "
  94      61642063 
  94      72656174 
  94      65642077 
  94      69746820 
  95 0055 000000   		.align	3
  96              	.LC3:
  97 0058 0A00     		.string	"\n"
  98 005a 00000000 		.align	3
  98      0000
  99              	.LC4:
 100 0060 4B72616A 		.string	"Krajnja suma je: "
 100      6E6A6120 
 100      73756D61 
 100      206A653A 
 100      2000
 101              		.text
 102              		.align	2
 103              		.globl	_Z12modifikacijav
 105              	_Z12modifikacijav:
 106              	.LFB34:
  21:test/modifikacija.cpp **** 
  22:test/modifikacija.cpp **** void modifikacija(){
 107              		.loc 1 22 20 is_stmt 1
 108              		.cfi_startproc
 109 0094 130101FD 		addi	sp,sp,-48
 110              		.cfi_def_cfa_offset 48
 111 0098 23341102 		sd	ra,40(sp)
 112 009c 23308102 		sd	s0,32(sp)
 113 00a0 233C9100 		sd	s1,24(sp)
 114 00a4 23382101 		sd	s2,16(sp)
 115 00a8 23343101 		sd	s3,8(sp)
 116 00ac 23304101 		sd	s4,0(sp)
 117              		.cfi_offset 1, -8
 118              		.cfi_offset 8, -16
 119              		.cfi_offset 9, -24
 120              		.cfi_offset 18, -32
 121              		.cfi_offset 19, -40
 122              		.cfi_offset 20, -48
 123 00b0 13040103 		addi	s0,sp,48
 124              		.cfi_def_cfa 8, 0
  23:test/modifikacija.cpp ****     printString("Uneti velicinu matrice!!! \n");
 125              		.loc 1 23 5
 126              		.loc 1 23 16 is_stmt 0
 127 00b4 17050000 		lla	a0,.LC1
GAS LISTING /tmp/ccS9UYIE.s 			page 4


 127      13050500 
 128 00bc 97000000 		call	_Z11printStringPKc@plt
 128      E7800000 
 129              	.LVL7:
  24:test/modifikacija.cpp ****     n = getc() - '0';
 130              		.loc 1 24 5 is_stmt 1
 131              		.loc 1 24 13 is_stmt 0
 132 00c4 97000000 		call	_Z4getcv@plt
 132      E7800000 
 133              	.LVL8:
 134              		.loc 1 24 16
 135 00cc 9B0705FD 		addiw	a5,a0,-48
 136              		.loc 1 24 7
 137 00d0 97040000 		lla	s1,.LANCHOR0
 137      93840400 
 138 00d8 23A0F400 		sw	a5,0(s1)
  25:test/modifikacija.cpp ****     getc(); // Enter posle broja
 139              		.loc 1 25 5 is_stmt 1
 140              		.loc 1 25 9 is_stmt 0
 141 00dc 97000000 		call	_Z4getcv@plt
 141      E7800000 
 142              	.LVL9:
  26:test/modifikacija.cpp **** 
  27:test/modifikacija.cpp ****     thread_t threads[n];
 143              		.loc 1 27 5 is_stmt 1
 144              		.loc 1 27 23 is_stmt 0
 145 00e4 83A70400 		lw	a5,0(s1)
 146 00e8 9B870700 		sext.w	a5,a5
 147              	.LVL10:
 148              		.loc 1 27 14
 149 00ec 93973700 		slli	a5,a5,3
 150              	.LVL11:
 151 00f0 9387F700 		addi	a5,a5,15
 152 00f4 93F707FF 		andi	a5,a5,-16
 153 00f8 3301F140 		sub	sp,sp,a5
 154 00fc 13090100 		mv	s2,sp
 155              	.LVL12:
  28:test/modifikacija.cpp **** 
  29:test/modifikacija.cpp ****     matrix = (volatile int**)mem_alloc(n*sizeof(int*));
 156              		.loc 1 29 5 is_stmt 1
 157              		.loc 1 29 40 is_stmt 0
 158 0100 03A50400 		lw	a0,0(s1)
 159 0104 1B050500 		sext.w	a0,a0
 160              		.loc 1 29 39
 161 0108 13153500 		slli	a0,a0,3
 162 010c 97000000 		call	_Z9mem_allocm@plt
 162      E7800000 
 163              	.LVL13:
 164              		.loc 1 29 12
 165 0114 23B4A400 		sd	a0,8(s1)
  30:test/modifikacija.cpp **** 
  31:test/modifikacija.cpp ****     for(int i = 0; i < n; i++){
 166              		.loc 1 31 5 is_stmt 1
 167              	.LVL14:
 168              	.LBB9:
 169              		.loc 1 31 13 is_stmt 0
 170 0118 93090000 		li	s3,0
GAS LISTING /tmp/ccS9UYIE.s 			page 5


 171 011c 6F008000 		j	.L9
 172              	.LVL15:
 173              	.L7:
 174              		.loc 1 31 5 is_stmt 1 discriminator 2
 175 0120 9B891900 		addiw	s3,s3,1
 176              	.LVL16:
 177              	.L9:
 178              		.loc 1 31 22 discriminator 1
 179              		.loc 1 31 24 is_stmt 0 discriminator 1
 180 0124 97070000 		lw	a5,.LANCHOR0
 180      83A70700 
 181              		.loc 1 31 22 discriminator 1
 182 012c 63D4F906 		bge	s3,a5,.L11
 183              	.LBB10:
  32:test/modifikacija.cpp ****         matrix[i] = (volatile int*)mem_alloc(n*sizeof (int));
 184              		.loc 1 32 9 is_stmt 1
 185              		.loc 1 32 46 is_stmt 0
 186 0130 97070000 		lla	a5,.LANCHOR0
 186      93870700 
 187 0138 03A50700 		lw	a0,0(a5)
 188 013c 1B050500 		sext.w	a0,a0
 189              		.loc 1 32 17
 190 0140 93943900 		slli	s1,s3,3
 191 0144 03BA8700 		ld	s4,8(a5)
 192 0148 330A9A00 		add	s4,s4,s1
 193              		.loc 1 32 45
 194 014c 13152500 		slli	a0,a0,2
 195 0150 97000000 		call	_Z9mem_allocm@plt
 195      E7800000 
 196              	.LVL17:
 197              		.loc 1 32 19
 198 0158 2330AA00 		sd	a0,0(s4)
  33:test/modifikacija.cpp ****         for(int j = 0; j < n; j++){
 199              		.loc 1 33 9 is_stmt 1
 200              	.LVL18:
 201              	.LBB11:
 202              		.loc 1 33 17 is_stmt 0
 203 015c 93070000 		li	a5,0
 204              	.LVL19:
 205              	.L8:
 206              		.loc 1 33 26 is_stmt 1 discriminator 3
 207              		.loc 1 33 28 is_stmt 0 discriminator 3
 208 0160 17070000 		lw	a4,.LANCHOR0
 208      03270700 
 209              		.loc 1 33 26 discriminator 3
 210 0168 E3DCE7FA 		bge	a5,a4,.L7
  34:test/modifikacija.cpp ****             matrix[i][j] = 10;
 211              		.loc 1 34 13 is_stmt 1 discriminator 2
 212              		.loc 1 34 21 is_stmt 0 discriminator 2
 213 016c 17070000 		ld	a4,.LANCHOR0+8
 213      03370700 
 214 0174 33079700 		add	a4,a4,s1
 215 0178 03370700 		ld	a4,0(a4)
 216              		.loc 1 34 24 discriminator 2
 217 017c 93962700 		slli	a3,a5,2
 218 0180 3307D700 		add	a4,a4,a3
 219              		.loc 1 34 26 discriminator 2
GAS LISTING /tmp/ccS9UYIE.s 			page 6


 220 0184 9306A000 		li	a3,10
 221 0188 2320D700 		sw	a3,0(a4)
  33:test/modifikacija.cpp ****         for(int j = 0; j < n; j++){
 222              		.loc 1 33 9 is_stmt 1 discriminator 2
 223 018c 9B871700 		addiw	a5,a5,1
 224              	.LVL20:
 225 0190 6FF01FFD 		j	.L8
 226              	.L11:
 227              	.LBE11:
 228              	.LBE10:
 229              	.LBE9:
 230              	.LBB12:
  35:test/modifikacija.cpp ****         }
  36:test/modifikacija.cpp ****     }
  37:test/modifikacija.cpp **** 
  38:test/modifikacija.cpp ****     for(int i = 0; i < n; i++){
 231              		.loc 1 38 13 is_stmt 0
 232 0194 93040000 		li	s1,0
 233              	.L6:
 234              	.LVL21:
 235              		.loc 1 38 22 is_stmt 1 discriminator 1
 236              		.loc 1 38 24 is_stmt 0 discriminator 1
 237 0198 97070000 		lw	a5,.LANCHOR0
 237      83A70700 
 238              		.loc 1 38 22 discriminator 1
 239 01a0 63DEF404 		bge	s1,a5,.L10
  39:test/modifikacija.cpp ****         thread_create(&threads[i], workerBody, nullptr);
 240              		.loc 1 39 9 is_stmt 1
 241              		.loc 1 39 22 is_stmt 0
 242 01a4 13953400 		slli	a0,s1,3
 243 01a8 13060000 		li	a2,0
 244 01ac 97050000 		lla	a1,_ZL10workerBodyPv
 244      93850500 
 245 01b4 3305A900 		add	a0,s2,a0
 246 01b8 97000000 		call	_Z13thread_createPP3TCBPFvPvES2_@plt
 246      E7800000 
 247              	.LVL22:
  40:test/modifikacija.cpp ****         printString("Thread created with number: ");
 248              		.loc 1 40 9 is_stmt 1
 249              		.loc 1 40 20 is_stmt 0
 250 01c0 17050000 		lla	a0,.LC2
 250      13050500 
 251 01c8 97000000 		call	_Z11printStringPKc@plt
 251      E7800000 
 252              	.LVL23:
  41:test/modifikacija.cpp ****         printInt(i+1);
 253              		.loc 1 41 9 is_stmt 1
 254              		.loc 1 41 17 is_stmt 0
 255 01d0 9B841400 		addiw	s1,s1,1
 256              	.LVL24:
 257 01d4 13060000 		li	a2,0
 258 01d8 9305A000 		li	a1,10
 259 01dc 13850400 		mv	a0,s1
 260 01e0 97000000 		call	_Z8printIntiii@plt
 260      E7800000 
 261              	.LVL25:
  42:test/modifikacija.cpp ****         printString("\n");
GAS LISTING /tmp/ccS9UYIE.s 			page 7


 262              		.loc 1 42 9 is_stmt 1
 263              		.loc 1 42 20 is_stmt 0
 264 01e8 17050000 		lla	a0,.LC3
 264      13050500 
 265 01f0 97000000 		call	_Z11printStringPKc@plt
 265      E7800000 
 266              	.LVL26:
 267 01f8 6FF01FFA 		j	.L6
 268              	.LVL27:
 269              	.L10:
 270              	.LBE12:
  43:test/modifikacija.cpp ****     }
  44:test/modifikacija.cpp ****     TCB::running->setPing(TCB::running);
 271              		.loc 1 44 5 is_stmt 1
 272              		.loc 1 44 26 is_stmt 0
 273 01fc 97070000 		la	a5,_ZN3TCB7runningE
 273      83B70700 
 274 0204 83B70700 		ld	a5,0(a5)
 275 0208 3337F000 		snez	a4,a5
 276              	.LVL28:
 277              	.LBB13:
 278              	.LBB14:
 279              		.file 2 "test/../h/tcb.h"
   1:test/../h/tcb.h **** #ifndef _TCB
   2:test/../h/tcb.h **** #define _TCB
   3:test/../h/tcb.h **** 
   4:test/../h/tcb.h **** #include "../lib/hw.h"
   5:test/../h/tcb.h **** #include "../lib/mem.h"
   6:test/../h/tcb.h **** #include "../h/mem.h"
   7:test/../h/tcb.h **** #include "../h/list.h"
   8:test/../h/tcb.h **** #include "scheduler.h"
   9:test/../h/tcb.h **** #include "../h/syscall_c.h"
  10:test/../h/tcb.h **** 
  11:test/../h/tcb.h **** class TCB{
  12:test/../h/tcb.h **** public:
  13:test/../h/tcb.h **** 
  14:test/../h/tcb.h ****     static TCB *running;
  15:test/../h/tcb.h ****     List<TCB> *suspended;
  16:test/../h/tcb.h ****     static List<TCB> *blocked;
  17:test/../h/tcb.h ****     using Body = void (*)(void*);
  18:test/../h/tcb.h **** 
  19:test/../h/tcb.h ****     struct Context
  20:test/../h/tcb.h ****     {
  21:test/../h/tcb.h ****         uint64 ra;
  22:test/../h/tcb.h ****         uint64 sp;
  23:test/../h/tcb.h ****     };
  24:test/../h/tcb.h **** 
  25:test/../h/tcb.h ****     Context context;
  26:test/../h/tcb.h **** 
  27:test/../h/tcb.h ****     void *operator new(size_t n){
  28:test/../h/tcb.h **** //        return __mem_alloc(n);
  29:test/../h/tcb.h **** //        return mem_alloc(n + sizeof(MEM::FullSpace));
  30:test/../h/tcb.h ****         return MEM::memAlloc(n + sizeof(MEM::FullSpace));
  31:test/../h/tcb.h ****     }
  32:test/../h/tcb.h ****     void *operator new[](size_t n){
  33:test/../h/tcb.h ****         //        return __mem_alloc(n);
  34:test/../h/tcb.h **** //        return mem_alloc(n + sizeof(MEM::FullSpace));
GAS LISTING /tmp/ccS9UYIE.s 			page 8


  35:test/../h/tcb.h ****         return MEM::memAlloc(n + sizeof(MEM::FullSpace));
  36:test/../h/tcb.h ****     }
  37:test/../h/tcb.h ****     void operator delete(void *p) noexcept{
  38:test/../h/tcb.h **** //        mem_free(p);
  39:test/../h/tcb.h ****         MEM::memFree(p);
  40:test/../h/tcb.h ****     }
  41:test/../h/tcb.h ****     void operator delete[](void *p) noexcept{
  42:test/../h/tcb.h **** //        mem_free(p);
  43:test/../h/tcb.h ****         MEM::memFree(p);
  44:test/../h/tcb.h ****     }
  45:test/../h/tcb.h ****     ~TCB() { delete[] stack; }
  46:test/../h/tcb.h **** 
  47:test/../h/tcb.h ****     bool isFinished() const { return finished; }
  48:test/../h/tcb.h ****     void setFinished(bool value) {
  49:test/../h/tcb.h ****             this->finished = value;
  50:test/../h/tcb.h ****     }
  51:test/../h/tcb.h ****     Context getContext() const { return context; }
  52:test/../h/tcb.h ****     void setContext(Context context) { this->context = context; }
  53:test/../h/tcb.h ****     bool getHasChildren() const { return hasChildren; }
  54:test/../h/tcb.h ****     void setHasChildren(bool value) { hasChildren = value; }
  55:test/../h/tcb.h ****     TCB *getParent() const { return parent;}
  56:test/../h/tcb.h ****     void setParent(TCB *parent) {this->parent = parent; }
  57:test/../h/tcb.h ****     int getThreadId();
  58:test/../h/tcb.h ****     void setPing(bool ping) { this->pinged = ping;}
 280              		.loc 2 58 31 is_stmt 1
 281              		.loc 2 58 44 is_stmt 0
 282 020c 2382E704 		sb	a4,68(a5)
 283              	.LVL29:
 284              	.LBE14:
 285              	.LBE13:
  45:test/modifikacija.cpp ****     thread_dispatch();
 286              		.loc 1 45 5 is_stmt 1
 287              		.loc 1 45 20 is_stmt 0
 288 0210 97000000 		call	_Z15thread_dispatchv@plt
 288      E7800000 
 289              	.LVL30:
  46:test/modifikacija.cpp ****     printString("Krajnja suma je: ");
 290              		.loc 1 46 5 is_stmt 1
 291              		.loc 1 46 16 is_stmt 0
 292 0218 17050000 		lla	a0,.LC4
 292      13050500 
 293 0220 97000000 		call	_Z11printStringPKc@plt
 293      E7800000 
 294              	.LVL31:
  47:test/modifikacija.cpp ****     printInt(sum);
 295              		.loc 1 47 5 is_stmt 1
 296              		.loc 1 47 13 is_stmt 0
 297 0228 13060000 		li	a2,0
 298 022c 9305A000 		li	a1,10
 299 0230 17050000 		lw	a0,.LANCHOR0+16
 299      03250500 
 300 0238 97000000 		call	_Z8printIntiii@plt
 300      E7800000 
 301              	.LVL32:
  48:test/modifikacija.cpp ****     printString("\n");
 302              		.loc 1 48 5 is_stmt 1
 303              		.loc 1 48 16 is_stmt 0
GAS LISTING /tmp/ccS9UYIE.s 			page 9


 304 0240 17050000 		lla	a0,.LC3
 304      13050500 
 305 0248 97000000 		call	_Z11printStringPKc@plt
 305      E7800000 
 306              	.LVL33:
  49:test/modifikacija.cpp **** }...
 307              		.loc 1 49 1
 308 0250 130104FD 		addi	sp,s0,-48
 309              		.cfi_def_cfa 2, 48
 310              	.LVL34:
 311 0254 83308102 		ld	ra,40(sp)
 312              		.cfi_restore 1
 313 0258 03340102 		ld	s0,32(sp)
 314              		.cfi_restore 8
 315 025c 83348101 		ld	s1,24(sp)
 316              		.cfi_restore 9
 317              	.LVL35:
 318 0260 03390101 		ld	s2,16(sp)
 319              		.cfi_restore 18
 320              	.LVL36:
 321 0264 83398100 		ld	s3,8(sp)
 322              		.cfi_restore 19
 323              	.LVL37:
 324 0268 033A0100 		ld	s4,0(sp)
 325              		.cfi_restore 20
 326 026c 13010103 		addi	sp,sp,48
 327              		.cfi_def_cfa_offset 0
 328 0270 67800000 		jr	ra
 329              		.cfi_endproc
 330              	.LFE34:
 332              		.bss
 333              		.align	3
 334              		.set	.LANCHOR0,. + 0
 337              	_ZL1n:
 338 0000 00000000 		.zero	4
 341              	_ZL3red:
 342 0004 00000000 		.zero	4
 345              	_ZL6matrix:
 346 0008 00000000 		.zero	8
 346      00000000 
 349              	_ZL3sum:
 350 0010 00000000 		.zero	4
 353              	_ZL8finished:
 354 0014 00       		.zero	1
 355              		.text
 356              	.Letext0:
 357              		.file 3 "test/../h/../lib/hw.h"
 358              		.file 4 "test/../h/syscall_c.h"
 359              		.file 5 "test/../h/../h/list.h"
 360              		.file 6 "test/printing.hpp"
GAS LISTING /tmp/ccS9UYIE.s 			page 10

