GAS LISTING /tmp/cc7DhlM3.s 			page 1


   1              		.file	"threadId.cpp"
   2              		.option pic
   3              		.option norelax
   4              		.text
   5              	.Ltext0:
   6              		.section	.text._ZN8WorkerTAD2Ev,"axG",@progbits,_ZN8WorkerTAD5Ev,comdat
   7              		.align	2
   8              		.weak	_ZN8WorkerTAD2Ev
  10              	_ZN8WorkerTAD2Ev:
  11              	.LFB26:
  12              		.file 1 "test/threadId.cpp"
   1:test/threadId.cpp **** #include "../h/syscall_cpp.hpp"
   2:test/threadId.cpp **** 
   3:test/threadId.cpp **** #include "printing.hpp"
   4:test/threadId.cpp **** 
   5:test/threadId.cpp **** static volatile bool finishedA = false;
   6:test/threadId.cpp **** static volatile bool finishedB = false;
   7:test/threadId.cpp **** static volatile bool finishedC = false;
   8:test/threadId.cpp **** 
   9:test/threadId.cpp **** class WorkerTA: public Thread {
  13              		.loc 1 9 7
  14              		.cfi_startproc
  15              	.LVL0:
  16 0000 130101FF 		addi	sp,sp,-16
  17              		.cfi_def_cfa_offset 16
  18 0004 23341100 		sd	ra,8(sp)
  19 0008 23308100 		sd	s0,0(sp)
  20              		.cfi_offset 1, -8
  21              		.cfi_offset 8, -16
  22 000c 13040101 		addi	s0,sp,16
  23              		.cfi_def_cfa 8, 0
  24              	.LBB22:
  25              		.loc 1 9 7 is_stmt 0
  26 0010 97070000 		lla	a5,_ZTV8WorkerTA+16
  26      93870700 
  27 0018 2330F500 		sd	a5,0(a0)
  28 001c 97000000 		call	_ZN6ThreadD2Ev@plt
  28      E7800000 
  29              	.LVL1:
  30              	.LBE22:
  31 0024 83308100 		ld	ra,8(sp)
  32              		.cfi_restore 1
  33 0028 03340100 		ld	s0,0(sp)
  34              		.cfi_restore 8
  35              		.cfi_def_cfa 2, 16
  36 002c 13010101 		addi	sp,sp,16
  37              		.cfi_def_cfa_offset 0
  38 0030 67800000 		jr	ra
  39              		.cfi_endproc
  40              	.LFE26:
  42              		.weak	_ZN8WorkerTAD1Ev
  43              		.set	_ZN8WorkerTAD1Ev,_ZN8WorkerTAD2Ev
  44              		.section	.text._ZN8WorkerTAD0Ev,"axG",@progbits,_ZN8WorkerTAD5Ev,comdat
  45              		.align	2
  46              		.weak	_ZN8WorkerTAD0Ev
  48              	_ZN8WorkerTAD0Ev:
  49              	.LFB28:
GAS LISTING /tmp/cc7DhlM3.s 			page 2


  50              		.loc 1 9 7 is_stmt 1
  51              		.cfi_startproc
  52              	.LVL2:
  53 0000 130101FE 		addi	sp,sp,-32
  54              		.cfi_def_cfa_offset 32
  55 0004 233C1100 		sd	ra,24(sp)
  56 0008 23388100 		sd	s0,16(sp)
  57 000c 23349100 		sd	s1,8(sp)
  58              		.cfi_offset 1, -8
  59              		.cfi_offset 8, -16
  60              		.cfi_offset 9, -24
  61 0010 13040102 		addi	s0,sp,32
  62              		.cfi_def_cfa 8, 0
  63 0014 93040500 		mv	s1,a0
  64              	.LVL3:
  65              	.LBB23:
  66              	.LBB24:
  67              		.loc 1 9 7 is_stmt 0
  68 0018 97070000 		lla	a5,_ZTV8WorkerTA+16
  68      93870700 
  69 0020 2330F500 		sd	a5,0(a0)
  70 0024 97000000 		call	_ZN6ThreadD2Ev@plt
  70      E7800000 
  71              	.LVL4:
  72              	.LBE24:
  73              	.LBE23:
  74 002c 13850400 		mv	a0,s1
  75 0030 97000000 		call	_ZdlPv@plt
  75      E7800000 
  76              	.LVL5:
  77 0038 83308101 		ld	ra,24(sp)
  78              		.cfi_restore 1
  79 003c 03340101 		ld	s0,16(sp)
  80              		.cfi_restore 8
  81              		.cfi_def_cfa 2, 32
  82 0040 83348100 		ld	s1,8(sp)
  83              		.cfi_restore 9
  84              	.LVL6:
  85 0044 13010102 		addi	sp,sp,32
  86              		.cfi_def_cfa_offset 0
  87 0048 67800000 		jr	ra
  88              		.cfi_endproc
  89              	.LFE28:
  91              		.section	.text._ZN8WorkerTBD2Ev,"axG",@progbits,_ZN8WorkerTBD5Ev,comdat
  92              		.align	2
  93              		.weak	_ZN8WorkerTBD2Ev
  95              	_ZN8WorkerTBD2Ev:
  96              	.LFB22:
  10:test/threadId.cpp ****     void workerBodyA(void* arg);
  11:test/threadId.cpp **** public:
  12:test/threadId.cpp ****     WorkerTA():Thread() {}
  13:test/threadId.cpp **** 
  14:test/threadId.cpp ****     void run() override {
  15:test/threadId.cpp ****         workerBodyA(nullptr);
  16:test/threadId.cpp ****     }
  17:test/threadId.cpp **** };
  18:test/threadId.cpp **** 
GAS LISTING /tmp/cc7DhlM3.s 			page 3


  19:test/threadId.cpp **** class WorkerTB: public Thread {
  97              		.loc 1 19 7 is_stmt 1
  98              		.cfi_startproc
  99              	.LVL7:
 100 0000 130101FF 		addi	sp,sp,-16
 101              		.cfi_def_cfa_offset 16
 102 0004 23341100 		sd	ra,8(sp)
 103 0008 23308100 		sd	s0,0(sp)
 104              		.cfi_offset 1, -8
 105              		.cfi_offset 8, -16
 106 000c 13040101 		addi	s0,sp,16
 107              		.cfi_def_cfa 8, 0
 108              	.LBB25:
 109              		.loc 1 19 7 is_stmt 0
 110 0010 97070000 		lla	a5,_ZTV8WorkerTB+16
 110      93870700 
 111 0018 2330F500 		sd	a5,0(a0)
 112 001c 97000000 		call	_ZN6ThreadD2Ev@plt
 112      E7800000 
 113              	.LVL8:
 114              	.LBE25:
 115 0024 83308100 		ld	ra,8(sp)
 116              		.cfi_restore 1
 117 0028 03340100 		ld	s0,0(sp)
 118              		.cfi_restore 8
 119              		.cfi_def_cfa 2, 16
 120 002c 13010101 		addi	sp,sp,16
 121              		.cfi_def_cfa_offset 0
 122 0030 67800000 		jr	ra
 123              		.cfi_endproc
 124              	.LFE22:
 126              		.weak	_ZN8WorkerTBD1Ev
 127              		.set	_ZN8WorkerTBD1Ev,_ZN8WorkerTBD2Ev
 128              		.section	.text._ZN8WorkerTBD0Ev,"axG",@progbits,_ZN8WorkerTBD5Ev,comdat
 129              		.align	2
 130              		.weak	_ZN8WorkerTBD0Ev
 132              	_ZN8WorkerTBD0Ev:
 133              	.LFB24:
 134              		.loc 1 19 7 is_stmt 1
 135              		.cfi_startproc
 136              	.LVL9:
 137 0000 130101FE 		addi	sp,sp,-32
 138              		.cfi_def_cfa_offset 32
 139 0004 233C1100 		sd	ra,24(sp)
 140 0008 23388100 		sd	s0,16(sp)
 141 000c 23349100 		sd	s1,8(sp)
 142              		.cfi_offset 1, -8
 143              		.cfi_offset 8, -16
 144              		.cfi_offset 9, -24
 145 0010 13040102 		addi	s0,sp,32
 146              		.cfi_def_cfa 8, 0
 147 0014 93040500 		mv	s1,a0
 148              	.LVL10:
 149              	.LBB26:
 150              	.LBB27:
 151              		.loc 1 19 7 is_stmt 0
 152 0018 97070000 		lla	a5,_ZTV8WorkerTB+16
GAS LISTING /tmp/cc7DhlM3.s 			page 4


 152      93870700 
 153 0020 2330F500 		sd	a5,0(a0)
 154 0024 97000000 		call	_ZN6ThreadD2Ev@plt
 154      E7800000 
 155              	.LVL11:
 156              	.LBE27:
 157              	.LBE26:
 158 002c 13850400 		mv	a0,s1
 159 0030 97000000 		call	_ZdlPv@plt
 159      E7800000 
 160              	.LVL12:
 161 0038 83308101 		ld	ra,24(sp)
 162              		.cfi_restore 1
 163 003c 03340101 		ld	s0,16(sp)
 164              		.cfi_restore 8
 165              		.cfi_def_cfa 2, 32
 166 0040 83348100 		ld	s1,8(sp)
 167              		.cfi_restore 9
 168              	.LVL13:
 169 0044 13010102 		addi	sp,sp,32
 170              		.cfi_def_cfa_offset 0
 171 0048 67800000 		jr	ra
 172              		.cfi_endproc
 173              	.LFE24:
 175              		.section	.text._ZN8WorkerTCD2Ev,"axG",@progbits,_ZN8WorkerTCD5Ev,comdat
 176              		.align	2
 177              		.weak	_ZN8WorkerTCD2Ev
 179              	_ZN8WorkerTCD2Ev:
 180              	.LFB18:
  20:test/threadId.cpp ****     void workerBodyB(void* arg);
  21:test/threadId.cpp **** public:
  22:test/threadId.cpp ****     WorkerTB():Thread() {}
  23:test/threadId.cpp **** 
  24:test/threadId.cpp ****     void run() override {
  25:test/threadId.cpp ****         workerBodyB(nullptr);
  26:test/threadId.cpp ****     }
  27:test/threadId.cpp **** };
  28:test/threadId.cpp **** 
  29:test/threadId.cpp **** class WorkerTC: public Thread {
 181              		.loc 1 29 7 is_stmt 1
 182              		.cfi_startproc
 183              	.LVL14:
 184 0000 130101FF 		addi	sp,sp,-16
 185              		.cfi_def_cfa_offset 16
 186 0004 23341100 		sd	ra,8(sp)
 187 0008 23308100 		sd	s0,0(sp)
 188              		.cfi_offset 1, -8
 189              		.cfi_offset 8, -16
 190 000c 13040101 		addi	s0,sp,16
 191              		.cfi_def_cfa 8, 0
 192              	.LBB28:
 193              		.loc 1 29 7 is_stmt 0
 194 0010 97070000 		lla	a5,_ZTV8WorkerTC+16
 194      93870700 
 195 0018 2330F500 		sd	a5,0(a0)
 196 001c 97000000 		call	_ZN6ThreadD2Ev@plt
 196      E7800000 
GAS LISTING /tmp/cc7DhlM3.s 			page 5


 197              	.LVL15:
 198              	.LBE28:
 199 0024 83308100 		ld	ra,8(sp)
 200              		.cfi_restore 1
 201 0028 03340100 		ld	s0,0(sp)
 202              		.cfi_restore 8
 203              		.cfi_def_cfa 2, 16
 204 002c 13010101 		addi	sp,sp,16
 205              		.cfi_def_cfa_offset 0
 206 0030 67800000 		jr	ra
 207              		.cfi_endproc
 208              	.LFE18:
 210              		.weak	_ZN8WorkerTCD1Ev
 211              		.set	_ZN8WorkerTCD1Ev,_ZN8WorkerTCD2Ev
 212              		.section	.text._ZN8WorkerTCD0Ev,"axG",@progbits,_ZN8WorkerTCD5Ev,comdat
 213              		.align	2
 214              		.weak	_ZN8WorkerTCD0Ev
 216              	_ZN8WorkerTCD0Ev:
 217              	.LFB20:
 218              		.loc 1 29 7 is_stmt 1
 219              		.cfi_startproc
 220              	.LVL16:
 221 0000 130101FE 		addi	sp,sp,-32
 222              		.cfi_def_cfa_offset 32
 223 0004 233C1100 		sd	ra,24(sp)
 224 0008 23388100 		sd	s0,16(sp)
 225 000c 23349100 		sd	s1,8(sp)
 226              		.cfi_offset 1, -8
 227              		.cfi_offset 8, -16
 228              		.cfi_offset 9, -24
 229 0010 13040102 		addi	s0,sp,32
 230              		.cfi_def_cfa 8, 0
 231 0014 93040500 		mv	s1,a0
 232              	.LVL17:
 233              	.LBB29:
 234              	.LBB30:
 235              		.loc 1 29 7 is_stmt 0
 236 0018 97070000 		lla	a5,_ZTV8WorkerTC+16
 236      93870700 
 237 0020 2330F500 		sd	a5,0(a0)
 238 0024 97000000 		call	_ZN6ThreadD2Ev@plt
 238      E7800000 
 239              	.LVL18:
 240              	.LBE30:
 241              	.LBE29:
 242 002c 13850400 		mv	a0,s1
 243 0030 97000000 		call	_ZdlPv@plt
 243      E7800000 
 244              	.LVL19:
 245 0038 83308101 		ld	ra,24(sp)
 246              		.cfi_restore 1
 247 003c 03340101 		ld	s0,16(sp)
 248              		.cfi_restore 8
 249              		.cfi_def_cfa 2, 32
 250 0040 83348100 		ld	s1,8(sp)
 251              		.cfi_restore 9
 252              	.LVL20:
GAS LISTING /tmp/cc7DhlM3.s 			page 6


 253 0044 13010102 		addi	sp,sp,32
 254              		.cfi_def_cfa_offset 0
 255 0048 67800000 		jr	ra
 256              		.cfi_endproc
 257              	.LFE20:
 259              		.section	.rodata.str1.8,"aMS",@progbits,1
 260              		.align	3
 261              	.LC0:
 262 0000 4E697420 		.string	"Nit A sa id-em: "
 262      41207361 
 262      2069642D 
 262      656D3A20 
 262      00
 263 0011 00000000 		.align	3
 263      000000
 264              	.LC1:
 265 0018 20692069 		.string	" i ispisom reda i="
 265      73706973 
 265      6F6D2072 
 265      65646120 
 265      693D00
 266 002b 00000000 		.align	3
 266      00
 267              	.LC2:
 268 0030 0A00     		.string	"\n"
 269 0032 00000000 		.align	3
 269      0000
 270              	.LC3:
 271 0038 41206669 		.string	"A finished!\n"
 271      6E697368 
 271      6564210A 
 271      00
 272              		.text
 273              		.align	2
 274              		.globl	_ZN8WorkerTA11workerBodyAEPv
 276              	_ZN8WorkerTA11workerBodyAEPv:
 277              	.LFB13:
  30:test/threadId.cpp ****     void workerBodyC(void* arg);
  31:test/threadId.cpp **** public:
  32:test/threadId.cpp ****     WorkerTC():Thread() {}
  33:test/threadId.cpp **** 
  34:test/threadId.cpp ****     void run() override {
  35:test/threadId.cpp ****         workerBodyC(nullptr);
  36:test/threadId.cpp ****     }
  37:test/threadId.cpp **** };
  38:test/threadId.cpp **** 
  39:test/threadId.cpp **** void WorkerTA::workerBodyA(void *arg) {
 278              		.loc 1 39 39 is_stmt 1
 279              		.cfi_startproc
 280              	.LVL21:
 281 0000 130101FE 		addi	sp,sp,-32
 282              		.cfi_def_cfa_offset 32
 283 0004 233C1100 		sd	ra,24(sp)
 284 0008 23388100 		sd	s0,16(sp)
 285 000c 23349100 		sd	s1,8(sp)
 286 0010 23302101 		sd	s2,0(sp)
 287              		.cfi_offset 1, -8
GAS LISTING /tmp/cc7DhlM3.s 			page 7


 288              		.cfi_offset 8, -16
 289              		.cfi_offset 9, -24
 290              		.cfi_offset 18, -32
 291 0014 13040102 		addi	s0,sp,32
 292              		.cfi_def_cfa 8, 0
  40:test/threadId.cpp ****     for (uint64 i = 0; i < 10; i++) {
 293              		.loc 1 40 5
 294              	.LVL22:
 295              	.LBB31:
 296              		.loc 1 40 17 is_stmt 0
 297 0018 13090000 		li	s2,0
 298 001c 6F008003 		j	.L19
 299              	.LVL23:
 300              	.L16:
 301              	.LBB32:
 302              	.LBB33:
 303              	.LBB34:
  41:test/threadId.cpp ****         int a = thread_get_id();
  42:test/threadId.cpp ****         printString("Nit A sa id-em: "); printInt(a);
  43:test/threadId.cpp ****         printString(" i ispisom reda i="); printInt(i);
  44:test/threadId.cpp ****         printString("\n");
  45:test/threadId.cpp ****         for (uint64 j = 0; j < 10000; j++) {
  46:test/threadId.cpp ****             for (uint64 k = 0; k < 30000; k++) { /* busy wait */ }
  47:test/threadId.cpp ****             thread_dispatch();
 304              		.loc 1 47 13 is_stmt 1 discriminator 2
 305              		.loc 1 47 28 is_stmt 0 discriminator 2
 306 0020 97000000 		call	_Z15thread_dispatchv@plt
 306      E7800000 
 307              	.LVL24:
 308              	.LBE34:
  45:test/threadId.cpp ****             for (uint64 k = 0; k < 30000; k++) { /* busy wait */ }
 309              		.loc 1 45 9 is_stmt 1 discriminator 2
 310 0028 93841400 		addi	s1,s1,1
 311              	.LVL25:
 312              	.L18:
  45:test/threadId.cpp ****             for (uint64 k = 0; k < 30000; k++) { /* busy wait */ }
 313              		.loc 1 45 30 discriminator 1
 314 002c B7270000 		li	a5,8192
 315 0030 9387F770 		addi	a5,a5,1807
 316 0034 63EE9700 		bgtu	s1,a5,.L15
 317              	.LBB36:
 318              	.LBB35:
  46:test/threadId.cpp ****             thread_dispatch();
 319              		.loc 1 46 25 is_stmt 0
 320 0038 13070000 		li	a4,0
 321              	.L17:
 322              	.LVL26:
  46:test/threadId.cpp ****             thread_dispatch();
 323              		.loc 1 46 34 is_stmt 1 discriminator 3
 324 003c B7770000 		li	a5,28672
 325 0040 9387F752 		addi	a5,a5,1327
 326 0044 E3EEE7FC 		bgtu	a4,a5,.L16
  46:test/threadId.cpp ****             thread_dispatch();
 327              		.loc 1 46 13 discriminator 2
 328 0048 13071700 		addi	a4,a4,1
 329              	.LVL27:
 330 004c 6FF01FFF 		j	.L17
GAS LISTING /tmp/cc7DhlM3.s 			page 8


 331              	.LVL28:
 332              	.L15:
 333              	.LBE35:
 334              	.LBE36:
 335              	.LBE33:
 336              	.LBE32:
  40:test/threadId.cpp ****         int a = thread_get_id();
 337              		.loc 1 40 5 discriminator 2
 338 0050 13091900 		addi	s2,s2,1
 339              	.LVL29:
 340              	.L19:
  40:test/threadId.cpp ****         int a = thread_get_id();
 341              		.loc 1 40 26 discriminator 1
 342 0054 93079000 		li	a5,9
 343 0058 63E82707 		bgtu	s2,a5,.L14
 344              	.LBB38:
  41:test/threadId.cpp ****         printString("Nit A sa id-em: "); printInt(a);
 345              		.loc 1 41 9
  41:test/threadId.cpp ****         printString("Nit A sa id-em: "); printInt(a);
 346              		.loc 1 41 30 is_stmt 0
 347 005c 97000000 		call	_Z13thread_get_idv@plt
 347      E7800000 
 348              	.LVL30:
 349 0064 93040500 		mv	s1,a0
 350              	.LVL31:
  42:test/threadId.cpp ****         printString(" i ispisom reda i="); printInt(i);
 351              		.loc 1 42 9 is_stmt 1
  42:test/threadId.cpp ****         printString(" i ispisom reda i="); printInt(i);
 352              		.loc 1 42 20 is_stmt 0
 353 0068 17050000 		lla	a0,.LC0
 353      13050500 
 354 0070 97000000 		call	_Z11printStringPKc@plt
 354      E7800000 
 355              	.LVL32:
  42:test/threadId.cpp ****         printString(" i ispisom reda i="); printInt(i);
 356              		.loc 1 42 42 is_stmt 1
  42:test/threadId.cpp ****         printString(" i ispisom reda i="); printInt(i);
 357              		.loc 1 42 50 is_stmt 0
 358 0078 13060000 		li	a2,0
 359 007c 9305A000 		li	a1,10
 360 0080 13850400 		mv	a0,s1
 361 0084 97000000 		call	_Z8printIntiii@plt
 361      E7800000 
 362              	.LVL33:
  43:test/threadId.cpp ****         printString("\n");
 363              		.loc 1 43 9 is_stmt 1
  43:test/threadId.cpp ****         printString("\n");
 364              		.loc 1 43 20 is_stmt 0
 365 008c 17050000 		lla	a0,.LC1
 365      13050500 
 366 0094 97000000 		call	_Z11printStringPKc@plt
 366      E7800000 
 367              	.LVL34:
  43:test/threadId.cpp ****         printString("\n");
 368              		.loc 1 43 44 is_stmt 1
  43:test/threadId.cpp ****         printString("\n");
 369              		.loc 1 43 52 is_stmt 0
GAS LISTING /tmp/cc7DhlM3.s 			page 9


 370 009c 13060000 		li	a2,0
 371 00a0 9305A000 		li	a1,10
 372 00a4 1B050900 		sext.w	a0,s2
 373 00a8 97000000 		call	_Z8printIntiii@plt
 373      E7800000 
 374              	.LVL35:
  44:test/threadId.cpp ****         for (uint64 j = 0; j < 10000; j++) {
 375              		.loc 1 44 9 is_stmt 1
  44:test/threadId.cpp ****         for (uint64 j = 0; j < 10000; j++) {
 376              		.loc 1 44 20 is_stmt 0
 377 00b0 17050000 		lla	a0,.LC2
 377      13050500 
 378 00b8 97000000 		call	_Z11printStringPKc@plt
 378      E7800000 
 379              	.LVL36:
  45:test/threadId.cpp ****             for (uint64 k = 0; k < 30000; k++) { /* busy wait */ }
 380              		.loc 1 45 9 is_stmt 1
 381              	.LBB37:
  45:test/threadId.cpp ****             for (uint64 k = 0; k < 30000; k++) { /* busy wait */ }
 382              		.loc 1 45 21 is_stmt 0
 383 00c0 93040000 		li	s1,0
 384              	.LVL37:
 385 00c4 6FF09FF6 		j	.L18
 386              	.LVL38:
 387              	.L14:
 388              	.LBE37:
 389              	.LBE38:
 390              	.LBE31:
  48:test/threadId.cpp ****         }
  49:test/threadId.cpp ****     }
  50:test/threadId.cpp ****     printString("A finished!\n");
 391              		.loc 1 50 5 is_stmt 1
 392              		.loc 1 50 16 is_stmt 0
 393 00c8 17050000 		lla	a0,.LC3
 393      13050500 
 394 00d0 97000000 		call	_Z11printStringPKc@plt
 394      E7800000 
 395              	.LVL39:
  51:test/threadId.cpp ****     finishedA = true;
 396              		.loc 1 51 5 is_stmt 1
 397              		.loc 1 51 15 is_stmt 0
 398 00d8 93071000 		li	a5,1
 399 00dc 17070000 		sb	a5,.LANCHOR0,a4
 399      2300F700 
  52:test/threadId.cpp **** }
 400              		.loc 1 52 1
 401 00e4 83308101 		ld	ra,24(sp)
 402              		.cfi_restore 1
 403 00e8 03340101 		ld	s0,16(sp)
 404              		.cfi_restore 8
 405              		.cfi_def_cfa 2, 32
 406 00ec 83348100 		ld	s1,8(sp)
 407              		.cfi_restore 9
 408 00f0 03390100 		ld	s2,0(sp)
 409              		.cfi_restore 18
 410              	.LVL40:
 411 00f4 13010102 		addi	sp,sp,32
GAS LISTING /tmp/cc7DhlM3.s 			page 10


 412              		.cfi_def_cfa_offset 0
 413 00f8 67800000 		jr	ra
 414              		.cfi_endproc
 415              	.LFE13:
 417              		.section	.text._ZN8WorkerTA3runEv,"axG",@progbits,_ZN8WorkerTA3runEv,comdat
 418              		.align	2
 419              		.weak	_ZN8WorkerTA3runEv
 421              	_ZN8WorkerTA3runEv:
 422              	.LFB4:
  14:test/threadId.cpp ****         workerBodyA(nullptr);
 423              		.loc 1 14 10 is_stmt 1
 424              		.cfi_startproc
 425              	.LVL41:
 426 0000 130101FF 		addi	sp,sp,-16
 427              		.cfi_def_cfa_offset 16
 428 0004 23341100 		sd	ra,8(sp)
 429 0008 23308100 		sd	s0,0(sp)
 430              		.cfi_offset 1, -8
 431              		.cfi_offset 8, -16
 432 000c 13040101 		addi	s0,sp,16
 433              		.cfi_def_cfa 8, 0
  15:test/threadId.cpp ****     }
 434              		.loc 1 15 9
  15:test/threadId.cpp ****     }
 435              		.loc 1 15 20 is_stmt 0
 436 0010 93050000 		li	a1,0
 437 0014 97000000 		call	_ZN8WorkerTA11workerBodyAEPv
 437      E7800000 
 438              	.LVL42:
  16:test/threadId.cpp **** };
 439              		.loc 1 16 5
 440 001c 83308100 		ld	ra,8(sp)
 441              		.cfi_restore 1
 442 0020 03340100 		ld	s0,0(sp)
 443              		.cfi_restore 8
 444              		.cfi_def_cfa 2, 16
 445 0024 13010101 		addi	sp,sp,16
 446              		.cfi_def_cfa_offset 0
 447 0028 67800000 		jr	ra
 448              		.cfi_endproc
 449              	.LFE4:
 451              		.section	.rodata.str1.8
 452 0045 000000   		.align	3
 453              	.LC4:
 454 0048 4E697420 		.string	"Nit B sa id-em: "
 454      42207361 
 454      2069642D 
 454      656D3A20 
 454      00
 455 0059 00000000 		.align	3
 455      000000
 456              	.LC5:
 457 0060 42206669 		.string	"B finished!\n"
 457      6E697368 
 457      6564210A 
 457      00
 458              		.text
GAS LISTING /tmp/cc7DhlM3.s 			page 11


 459              		.align	2
 460              		.globl	_ZN8WorkerTB11workerBodyBEPv
 462              	_ZN8WorkerTB11workerBodyBEPv:
 463              	.LFB14:
  53:test/threadId.cpp **** 
  54:test/threadId.cpp **** void WorkerTB::workerBodyB(void *arg) {
 464              		.loc 1 54 39 is_stmt 1
 465              		.cfi_startproc
 466              	.LVL43:
 467 00fc 130101FE 		addi	sp,sp,-32
 468              		.cfi_def_cfa_offset 32
 469 0100 233C1100 		sd	ra,24(sp)
 470 0104 23388100 		sd	s0,16(sp)
 471 0108 23349100 		sd	s1,8(sp)
 472 010c 23302101 		sd	s2,0(sp)
 473              		.cfi_offset 1, -8
 474              		.cfi_offset 8, -16
 475              		.cfi_offset 9, -24
 476              		.cfi_offset 18, -32
 477 0110 13040102 		addi	s0,sp,32
 478              		.cfi_def_cfa 8, 0
  55:test/threadId.cpp ****     for (uint64 i = 0; i < 10; i++) {
 479              		.loc 1 55 5
 480              	.LVL44:
 481              	.LBB39:
 482              		.loc 1 55 17 is_stmt 0
 483 0114 13090000 		li	s2,0
 484 0118 6F008003 		j	.L29
 485              	.LVL45:
 486              	.L26:
 487              	.LBB40:
 488              	.LBB41:
 489              	.LBB42:
  56:test/threadId.cpp ****         int b = thread_get_id();
  57:test/threadId.cpp ****         printString("Nit B sa id-em: "); printInt(b);
  58:test/threadId.cpp ****         printString(" i ispisom reda i="); printInt(i);
  59:test/threadId.cpp ****         printString("\n");
  60:test/threadId.cpp ****         for (uint64 j = 0; j < 10000; j++) {
  61:test/threadId.cpp ****             for (uint64 k = 0; k < 30000; k++) { /* busy wait */ }
  62:test/threadId.cpp ****             thread_dispatch();
 490              		.loc 1 62 13 is_stmt 1 discriminator 2
 491              		.loc 1 62 28 is_stmt 0 discriminator 2
 492 011c 97000000 		call	_Z15thread_dispatchv@plt
 492      E7800000 
 493              	.LVL46:
 494              	.LBE42:
  60:test/threadId.cpp ****             for (uint64 k = 0; k < 30000; k++) { /* busy wait */ }
 495              		.loc 1 60 9 is_stmt 1 discriminator 2
 496 0124 93841400 		addi	s1,s1,1
 497              	.LVL47:
 498              	.L28:
  60:test/threadId.cpp ****             for (uint64 k = 0; k < 30000; k++) { /* busy wait */ }
 499              		.loc 1 60 30 discriminator 1
 500 0128 B7270000 		li	a5,8192
 501 012c 9387F770 		addi	a5,a5,1807
 502 0130 63EE9700 		bgtu	s1,a5,.L25
 503              	.LBB44:
GAS LISTING /tmp/cc7DhlM3.s 			page 12


 504              	.LBB43:
  61:test/threadId.cpp ****             thread_dispatch();
 505              		.loc 1 61 25 is_stmt 0
 506 0134 13070000 		li	a4,0
 507              	.L27:
 508              	.LVL48:
  61:test/threadId.cpp ****             thread_dispatch();
 509              		.loc 1 61 34 is_stmt 1 discriminator 3
 510 0138 B7770000 		li	a5,28672
 511 013c 9387F752 		addi	a5,a5,1327
 512 0140 E3EEE7FC 		bgtu	a4,a5,.L26
  61:test/threadId.cpp ****             thread_dispatch();
 513              		.loc 1 61 13 discriminator 2
 514 0144 13071700 		addi	a4,a4,1
 515              	.LVL49:
 516 0148 6FF01FFF 		j	.L27
 517              	.LVL50:
 518              	.L25:
 519              	.LBE43:
 520              	.LBE44:
 521              	.LBE41:
 522              	.LBE40:
  55:test/threadId.cpp ****         int b = thread_get_id();
 523              		.loc 1 55 5 discriminator 2
 524 014c 13091900 		addi	s2,s2,1
 525              	.LVL51:
 526              	.L29:
  55:test/threadId.cpp ****         int b = thread_get_id();
 527              		.loc 1 55 26 discriminator 1
 528 0150 93079000 		li	a5,9
 529 0154 63E82707 		bgtu	s2,a5,.L24
 530              	.LBB46:
  56:test/threadId.cpp ****         printString("Nit B sa id-em: "); printInt(b);
 531              		.loc 1 56 9
  56:test/threadId.cpp ****         printString("Nit B sa id-em: "); printInt(b);
 532              		.loc 1 56 30 is_stmt 0
 533 0158 97000000 		call	_Z13thread_get_idv@plt
 533      E7800000 
 534              	.LVL52:
 535 0160 93040500 		mv	s1,a0
 536              	.LVL53:
  57:test/threadId.cpp ****         printString(" i ispisom reda i="); printInt(i);
 537              		.loc 1 57 9 is_stmt 1
  57:test/threadId.cpp ****         printString(" i ispisom reda i="); printInt(i);
 538              		.loc 1 57 20 is_stmt 0
 539 0164 17050000 		lla	a0,.LC4
 539      13050500 
 540 016c 97000000 		call	_Z11printStringPKc@plt
 540      E7800000 
 541              	.LVL54:
  57:test/threadId.cpp ****         printString(" i ispisom reda i="); printInt(i);
 542              		.loc 1 57 42 is_stmt 1
  57:test/threadId.cpp ****         printString(" i ispisom reda i="); printInt(i);
 543              		.loc 1 57 50 is_stmt 0
 544 0174 13060000 		li	a2,0
 545 0178 9305A000 		li	a1,10
 546 017c 13850400 		mv	a0,s1
GAS LISTING /tmp/cc7DhlM3.s 			page 13


 547 0180 97000000 		call	_Z8printIntiii@plt
 547      E7800000 
 548              	.LVL55:
  58:test/threadId.cpp ****         printString("\n");
 549              		.loc 1 58 9 is_stmt 1
  58:test/threadId.cpp ****         printString("\n");
 550              		.loc 1 58 20 is_stmt 0
 551 0188 17050000 		lla	a0,.LC1
 551      13050500 
 552 0190 97000000 		call	_Z11printStringPKc@plt
 552      E7800000 
 553              	.LVL56:
  58:test/threadId.cpp ****         printString("\n");
 554              		.loc 1 58 44 is_stmt 1
  58:test/threadId.cpp ****         printString("\n");
 555              		.loc 1 58 52 is_stmt 0
 556 0198 13060000 		li	a2,0
 557 019c 9305A000 		li	a1,10
 558 01a0 1B050900 		sext.w	a0,s2
 559 01a4 97000000 		call	_Z8printIntiii@plt
 559      E7800000 
 560              	.LVL57:
  59:test/threadId.cpp ****         for (uint64 j = 0; j < 10000; j++) {
 561              		.loc 1 59 9 is_stmt 1
  59:test/threadId.cpp ****         for (uint64 j = 0; j < 10000; j++) {
 562              		.loc 1 59 20 is_stmt 0
 563 01ac 17050000 		lla	a0,.LC2
 563      13050500 
 564 01b4 97000000 		call	_Z11printStringPKc@plt
 564      E7800000 
 565              	.LVL58:
  60:test/threadId.cpp ****             for (uint64 k = 0; k < 30000; k++) { /* busy wait */ }
 566              		.loc 1 60 9 is_stmt 1
 567              	.LBB45:
  60:test/threadId.cpp ****             for (uint64 k = 0; k < 30000; k++) { /* busy wait */ }
 568              		.loc 1 60 21 is_stmt 0
 569 01bc 93040000 		li	s1,0
 570              	.LVL59:
 571 01c0 6FF09FF6 		j	.L28
 572              	.LVL60:
 573              	.L24:
 574              	.LBE45:
 575              	.LBE46:
 576              	.LBE39:
  63:test/threadId.cpp ****         }
  64:test/threadId.cpp ****     }
  65:test/threadId.cpp ****     printString("B finished!\n");
 577              		.loc 1 65 5 is_stmt 1
 578              		.loc 1 65 16 is_stmt 0
 579 01c4 17050000 		lla	a0,.LC5
 579      13050500 
 580 01cc 97000000 		call	_Z11printStringPKc@plt
 580      E7800000 
 581              	.LVL61:
  66:test/threadId.cpp ****     finishedA = true;
 582              		.loc 1 66 5 is_stmt 1
 583              		.loc 1 66 15 is_stmt 0
GAS LISTING /tmp/cc7DhlM3.s 			page 14


 584 01d4 93071000 		li	a5,1
 585 01d8 17070000 		sb	a5,.LANCHOR0,a4
 585      2300F700 
  67:test/threadId.cpp **** }
 586              		.loc 1 67 1
 587 01e0 83308101 		ld	ra,24(sp)
 588              		.cfi_restore 1
 589 01e4 03340101 		ld	s0,16(sp)
 590              		.cfi_restore 8
 591              		.cfi_def_cfa 2, 32
 592 01e8 83348100 		ld	s1,8(sp)
 593              		.cfi_restore 9
 594 01ec 03390100 		ld	s2,0(sp)
 595              		.cfi_restore 18
 596              	.LVL62:
 597 01f0 13010102 		addi	sp,sp,32
 598              		.cfi_def_cfa_offset 0
 599 01f4 67800000 		jr	ra
 600              		.cfi_endproc
 601              	.LFE14:
 603              		.section	.text._ZN8WorkerTB3runEv,"axG",@progbits,_ZN8WorkerTB3runEv,comdat
 604              		.align	2
 605              		.weak	_ZN8WorkerTB3runEv
 607              	_ZN8WorkerTB3runEv:
 608              	.LFB8:
  24:test/threadId.cpp ****         workerBodyB(nullptr);
 609              		.loc 1 24 10 is_stmt 1
 610              		.cfi_startproc
 611              	.LVL63:
 612 0000 130101FF 		addi	sp,sp,-16
 613              		.cfi_def_cfa_offset 16
 614 0004 23341100 		sd	ra,8(sp)
 615 0008 23308100 		sd	s0,0(sp)
 616              		.cfi_offset 1, -8
 617              		.cfi_offset 8, -16
 618 000c 13040101 		addi	s0,sp,16
 619              		.cfi_def_cfa 8, 0
  25:test/threadId.cpp ****     }
 620              		.loc 1 25 9
  25:test/threadId.cpp ****     }
 621              		.loc 1 25 20 is_stmt 0
 622 0010 93050000 		li	a1,0
 623 0014 97000000 		call	_ZN8WorkerTB11workerBodyBEPv
 623      E7800000 
 624              	.LVL64:
  26:test/threadId.cpp **** };
 625              		.loc 1 26 5
 626 001c 83308100 		ld	ra,8(sp)
 627              		.cfi_restore 1
 628 0020 03340100 		ld	s0,0(sp)
 629              		.cfi_restore 8
 630              		.cfi_def_cfa 2, 16
 631 0024 13010101 		addi	sp,sp,16
 632              		.cfi_def_cfa_offset 0
 633 0028 67800000 		jr	ra
 634              		.cfi_endproc
 635              	.LFE8:
GAS LISTING /tmp/cc7DhlM3.s 			page 15


 637              		.section	.rodata.str1.8
 638 006d 000000   		.align	3
 639              	.LC6:
 640 0070 4E697420 		.string	"Nit C sa id-em: "
 640      43207361 
 640      2069642D 
 640      656D3A20 
 640      00
 641 0081 00000000 		.align	3
 641      000000
 642              	.LC7:
 643 0088 43206669 		.string	"C finished!\n"
 643      6E697368 
 643      6564210A 
 643      00
 644              		.text
 645              		.align	2
 646              		.globl	_ZN8WorkerTC11workerBodyCEPv
 648              	_ZN8WorkerTC11workerBodyCEPv:
 649              	.LFB15:
  68:test/threadId.cpp **** 
  69:test/threadId.cpp **** void WorkerTC::workerBodyC(void *arg) {
 650              		.loc 1 69 39 is_stmt 1
 651              		.cfi_startproc
 652              	.LVL65:
 653 01f8 130101FE 		addi	sp,sp,-32
 654              		.cfi_def_cfa_offset 32
 655 01fc 233C1100 		sd	ra,24(sp)
 656 0200 23388100 		sd	s0,16(sp)
 657 0204 23349100 		sd	s1,8(sp)
 658 0208 23302101 		sd	s2,0(sp)
 659              		.cfi_offset 1, -8
 660              		.cfi_offset 8, -16
 661              		.cfi_offset 9, -24
 662              		.cfi_offset 18, -32
 663 020c 13040102 		addi	s0,sp,32
 664              		.cfi_def_cfa 8, 0
  70:test/threadId.cpp ****     for (uint64 i = 0; i < 10; i++) {
 665              		.loc 1 70 5
 666              	.LVL66:
 667              	.LBB47:
 668              		.loc 1 70 17 is_stmt 0
 669 0210 13090000 		li	s2,0
 670 0214 6F008003 		j	.L39
 671              	.LVL67:
 672              	.L36:
 673              	.LBB48:
 674              	.LBB49:
 675              	.LBB50:
  71:test/threadId.cpp ****         int c = thread_get_id();
  72:test/threadId.cpp ****         printString("Nit C sa id-em: "); printInt(c);
  73:test/threadId.cpp ****         printString(" i ispisom reda i="); printInt(i);
  74:test/threadId.cpp ****         printString("\n");
  75:test/threadId.cpp ****         for (uint64 j = 0; j < 10000; j++) {
  76:test/threadId.cpp ****             for (uint64 k = 0; k < 30000; k++) { /* busy wait */ }
  77:test/threadId.cpp ****             thread_dispatch();
 676              		.loc 1 77 13 is_stmt 1 discriminator 2
GAS LISTING /tmp/cc7DhlM3.s 			page 16


 677              		.loc 1 77 28 is_stmt 0 discriminator 2
 678 0218 97000000 		call	_Z15thread_dispatchv@plt
 678      E7800000 
 679              	.LVL68:
 680              	.LBE50:
  75:test/threadId.cpp ****             for (uint64 k = 0; k < 30000; k++) { /* busy wait */ }
 681              		.loc 1 75 9 is_stmt 1 discriminator 2
 682 0220 93841400 		addi	s1,s1,1
 683              	.LVL69:
 684              	.L38:
  75:test/threadId.cpp ****             for (uint64 k = 0; k < 30000; k++) { /* busy wait */ }
 685              		.loc 1 75 30 discriminator 1
 686 0224 B7270000 		li	a5,8192
 687 0228 9387F770 		addi	a5,a5,1807
 688 022c 63EE9700 		bgtu	s1,a5,.L35
 689              	.LBB52:
 690              	.LBB51:
  76:test/threadId.cpp ****             thread_dispatch();
 691              		.loc 1 76 25 is_stmt 0
 692 0230 13070000 		li	a4,0
 693              	.L37:
 694              	.LVL70:
  76:test/threadId.cpp ****             thread_dispatch();
 695              		.loc 1 76 34 is_stmt 1 discriminator 3
 696 0234 B7770000 		li	a5,28672
 697 0238 9387F752 		addi	a5,a5,1327
 698 023c E3EEE7FC 		bgtu	a4,a5,.L36
  76:test/threadId.cpp ****             thread_dispatch();
 699              		.loc 1 76 13 discriminator 2
 700 0240 13071700 		addi	a4,a4,1
 701              	.LVL71:
 702 0244 6FF01FFF 		j	.L37
 703              	.LVL72:
 704              	.L35:
 705              	.LBE51:
 706              	.LBE52:
 707              	.LBE49:
 708              	.LBE48:
  70:test/threadId.cpp ****         int c = thread_get_id();
 709              		.loc 1 70 5 discriminator 2
 710 0248 13091900 		addi	s2,s2,1
 711              	.LVL73:
 712              	.L39:
  70:test/threadId.cpp ****         int c = thread_get_id();
 713              		.loc 1 70 26 discriminator 1
 714 024c 93079000 		li	a5,9
 715 0250 63E82707 		bgtu	s2,a5,.L34
 716              	.LBB54:
  71:test/threadId.cpp ****         printString("Nit C sa id-em: "); printInt(c);
 717              		.loc 1 71 9
  71:test/threadId.cpp ****         printString("Nit C sa id-em: "); printInt(c);
 718              		.loc 1 71 30 is_stmt 0
 719 0254 97000000 		call	_Z13thread_get_idv@plt
 719      E7800000 
 720              	.LVL74:
 721 025c 93040500 		mv	s1,a0
 722              	.LVL75:
GAS LISTING /tmp/cc7DhlM3.s 			page 17


  72:test/threadId.cpp ****         printString(" i ispisom reda i="); printInt(i);
 723              		.loc 1 72 9 is_stmt 1
  72:test/threadId.cpp ****         printString(" i ispisom reda i="); printInt(i);
 724              		.loc 1 72 20 is_stmt 0
 725 0260 17050000 		lla	a0,.LC6
 725      13050500 
 726 0268 97000000 		call	_Z11printStringPKc@plt
 726      E7800000 
 727              	.LVL76:
  72:test/threadId.cpp ****         printString(" i ispisom reda i="); printInt(i);
 728              		.loc 1 72 42 is_stmt 1
  72:test/threadId.cpp ****         printString(" i ispisom reda i="); printInt(i);
 729              		.loc 1 72 50 is_stmt 0
 730 0270 13060000 		li	a2,0
 731 0274 9305A000 		li	a1,10
 732 0278 13850400 		mv	a0,s1
 733 027c 97000000 		call	_Z8printIntiii@plt
 733      E7800000 
 734              	.LVL77:
  73:test/threadId.cpp ****         printString("\n");
 735              		.loc 1 73 9 is_stmt 1
  73:test/threadId.cpp ****         printString("\n");
 736              		.loc 1 73 20 is_stmt 0
 737 0284 17050000 		lla	a0,.LC1
 737      13050500 
 738 028c 97000000 		call	_Z11printStringPKc@plt
 738      E7800000 
 739              	.LVL78:
  73:test/threadId.cpp ****         printString("\n");
 740              		.loc 1 73 44 is_stmt 1
  73:test/threadId.cpp ****         printString("\n");
 741              		.loc 1 73 52 is_stmt 0
 742 0294 13060000 		li	a2,0
 743 0298 9305A000 		li	a1,10
 744 029c 1B050900 		sext.w	a0,s2
 745 02a0 97000000 		call	_Z8printIntiii@plt
 745      E7800000 
 746              	.LVL79:
  74:test/threadId.cpp ****         for (uint64 j = 0; j < 10000; j++) {
 747              		.loc 1 74 9 is_stmt 1
  74:test/threadId.cpp ****         for (uint64 j = 0; j < 10000; j++) {
 748              		.loc 1 74 20 is_stmt 0
 749 02a8 17050000 		lla	a0,.LC2
 749      13050500 
 750 02b0 97000000 		call	_Z11printStringPKc@plt
 750      E7800000 
 751              	.LVL80:
  75:test/threadId.cpp ****             for (uint64 k = 0; k < 30000; k++) { /* busy wait */ }
 752              		.loc 1 75 9 is_stmt 1
 753              	.LBB53:
  75:test/threadId.cpp ****             for (uint64 k = 0; k < 30000; k++) { /* busy wait */ }
 754              		.loc 1 75 21 is_stmt 0
 755 02b8 93040000 		li	s1,0
 756              	.LVL81:
 757 02bc 6FF09FF6 		j	.L38
 758              	.LVL82:
 759              	.L34:
GAS LISTING /tmp/cc7DhlM3.s 			page 18


 760              	.LBE53:
 761              	.LBE54:
 762              	.LBE47:
  78:test/threadId.cpp ****         }
  79:test/threadId.cpp ****     }
  80:test/threadId.cpp ****     printString("C finished!\n");
 763              		.loc 1 80 5 is_stmt 1
 764              		.loc 1 80 16 is_stmt 0
 765 02c0 17050000 		lla	a0,.LC7
 765      13050500 
 766 02c8 97000000 		call	_Z11printStringPKc@plt
 766      E7800000 
 767              	.LVL83:
  81:test/threadId.cpp ****     finishedA = true;
 768              		.loc 1 81 5 is_stmt 1
 769              		.loc 1 81 15 is_stmt 0
 770 02d0 93071000 		li	a5,1
 771 02d4 17070000 		sb	a5,.LANCHOR0,a4
 771      2300F700 
  82:test/threadId.cpp **** }
 772              		.loc 1 82 1
 773 02dc 83308101 		ld	ra,24(sp)
 774              		.cfi_restore 1
 775 02e0 03340101 		ld	s0,16(sp)
 776              		.cfi_restore 8
 777              		.cfi_def_cfa 2, 32
 778 02e4 83348100 		ld	s1,8(sp)
 779              		.cfi_restore 9
 780 02e8 03390100 		ld	s2,0(sp)
 781              		.cfi_restore 18
 782              	.LVL84:
 783 02ec 13010102 		addi	sp,sp,32
 784              		.cfi_def_cfa_offset 0
 785 02f0 67800000 		jr	ra
 786              		.cfi_endproc
 787              	.LFE15:
 789              		.section	.text._ZN8WorkerTC3runEv,"axG",@progbits,_ZN8WorkerTC3runEv,comdat
 790              		.align	2
 791              		.weak	_ZN8WorkerTC3runEv
 793              	_ZN8WorkerTC3runEv:
 794              	.LFB12:
  34:test/threadId.cpp ****         workerBodyC(nullptr);
 795              		.loc 1 34 10 is_stmt 1
 796              		.cfi_startproc
 797              	.LVL85:
 798 0000 130101FF 		addi	sp,sp,-16
 799              		.cfi_def_cfa_offset 16
 800 0004 23341100 		sd	ra,8(sp)
 801 0008 23308100 		sd	s0,0(sp)
 802              		.cfi_offset 1, -8
 803              		.cfi_offset 8, -16
 804 000c 13040101 		addi	s0,sp,16
 805              		.cfi_def_cfa 8, 0
  35:test/threadId.cpp ****     }
 806              		.loc 1 35 9
  35:test/threadId.cpp ****     }
 807              		.loc 1 35 20 is_stmt 0
GAS LISTING /tmp/cc7DhlM3.s 			page 19


 808 0010 93050000 		li	a1,0
 809 0014 97000000 		call	_ZN8WorkerTC11workerBodyCEPv
 809      E7800000 
 810              	.LVL86:
  36:test/threadId.cpp **** };
 811              		.loc 1 36 5
 812 001c 83308100 		ld	ra,8(sp)
 813              		.cfi_restore 1
 814 0020 03340100 		ld	s0,0(sp)
 815              		.cfi_restore 8
 816              		.cfi_def_cfa 2, 16
 817 0024 13010101 		addi	sp,sp,16
 818              		.cfi_def_cfa_offset 0
 819 0028 67800000 		jr	ra
 820              		.cfi_endproc
 821              	.LFE12:
 823              		.section	.rodata.str1.8
 824 0095 000000   		.align	3
 825              	.LC8:
 826 0098 54687265 		.string	"ThreadA created\n"
 826      61644120 
 826      63726561 
 826      7465640A 
 826      00
 827 00a9 00000000 		.align	3
 827      000000
 828              	.LC9:
 829 00b0 54687265 		.string	"ThreadB created\n"
 829      61644220 
 829      63726561 
 829      7465640A 
 829      00
 830 00c1 00000000 		.align	3
 830      000000
 831              	.LC10:
 832 00c8 54687265 		.string	"ThreadC created\n"
 832      61644320 
 832      63726561 
 832      7465640A 
 832      00
 833              		.text
 834              		.align	2
 835              		.globl	_Z19Threads_ID_API_testv
 837              	_Z19Threads_ID_API_testv:
 838              	.LFB16:
  83:test/threadId.cpp **** 
  84:test/threadId.cpp **** void Threads_ID_API_test() {
 839              		.loc 1 84 28 is_stmt 1
 840              		.cfi_startproc
 841              		.cfi_personality 0x9b,DW.ref.__gxx_personality_v0
 842              		.cfi_lsda 0x1b,.LLSDA16
 843 02f4 130101FC 		addi	sp,sp,-64
 844              		.cfi_def_cfa_offset 64
 845 02f8 233C1102 		sd	ra,56(sp)
 846 02fc 23388102 		sd	s0,48(sp)
 847 0300 23349102 		sd	s1,40(sp)
 848 0304 23302103 		sd	s2,32(sp)
GAS LISTING /tmp/cc7DhlM3.s 			page 20


 849              		.cfi_offset 1, -8
 850              		.cfi_offset 8, -16
 851              		.cfi_offset 9, -24
 852              		.cfi_offset 18, -32
 853 0308 13040104 		addi	s0,sp,64
 854              		.cfi_def_cfa 8, 0
  85:test/threadId.cpp ****     Thread* threads[4];
 855              		.loc 1 85 5
  86:test/threadId.cpp **** 
  87:test/threadId.cpp ****     threads[0] = new WorkerTA();
 856              		.loc 1 87 5
 857              		.loc 1 87 31 is_stmt 0
 858 030c 13050002 		li	a0,32
 859              	.LEHB0:
 860 0310 97000000 		call	_Znwm@plt
 860      E7800000 
 861              	.LVL87:
 862              	.LEHE0:
 863 0318 93040500 		mv	s1,a0
 864              	.LVL88:
 865              	.LEHB1:
 866              	.LBB55:
 867              	.LBB56:
  12:test/threadId.cpp **** 
 868              		.loc 1 12 23
 869 031c 97000000 		call	_ZN6ThreadC2Ev@plt
 869      E7800000 
 870              	.LVL89:
 871              	.LEHE1:
 872 0324 97070000 		lla	a5,_ZTV8WorkerTA+16
 872      93870700 
 873 032c 23B0F400 		sd	a5,0(s1)
 874              	.LVL90:
 875              	.LBE56:
 876              	.LBE55:
 877              		.loc 1 87 16
 878 0330 233094FC 		sd	s1,-64(s0)
  88:test/threadId.cpp ****     printString("ThreadA created\n");
 879              		.loc 1 88 5 is_stmt 1
 880              		.loc 1 88 16 is_stmt 0
 881 0334 17050000 		lla	a0,.LC8
 881      13050500 
 882              	.LEHB2:
 883 033c 97000000 		call	_Z11printStringPKc@plt
 883      E7800000 
 884              	.LVL91:
  89:test/threadId.cpp **** 
  90:test/threadId.cpp ****     threads[1] = new WorkerTB();
 885              		.loc 1 90 5 is_stmt 1
 886              		.loc 1 90 31 is_stmt 0
 887 0344 13050002 		li	a0,32
 888 0348 97000000 		call	_Znwm@plt
 888      E7800000 
 889              	.LVL92:
 890              	.LEHE2:
 891 0350 93040500 		mv	s1,a0
 892              	.LVL93:
GAS LISTING /tmp/cc7DhlM3.s 			page 21


 893              	.LEHB3:
 894              	.LBB57:
 895              	.LBB58:
  22:test/threadId.cpp **** 
 896              		.loc 1 22 23
 897 0354 97000000 		call	_ZN6ThreadC2Ev@plt
 897      E7800000 
 898              	.LVL94:
 899              	.LEHE3:
 900 035c 97070000 		lla	a5,_ZTV8WorkerTB+16
 900      93870700 
 901 0364 23B0F400 		sd	a5,0(s1)
 902              	.LVL95:
 903              	.LBE58:
 904              	.LBE57:
 905              		.loc 1 90 16
 906 0368 233494FC 		sd	s1,-56(s0)
  91:test/threadId.cpp ****     printString("ThreadB created\n");
 907              		.loc 1 91 5 is_stmt 1
 908              		.loc 1 91 16 is_stmt 0
 909 036c 17050000 		lla	a0,.LC9
 909      13050500 
 910              	.LEHB4:
 911 0374 97000000 		call	_Z11printStringPKc@plt
 911      E7800000 
 912              	.LVL96:
  92:test/threadId.cpp **** 
  93:test/threadId.cpp ****     threads[2] = new WorkerTC();
 913              		.loc 1 93 5 is_stmt 1
 914              		.loc 1 93 31 is_stmt 0
 915 037c 13050002 		li	a0,32
 916 0380 97000000 		call	_Znwm@plt
 916      E7800000 
 917              	.LVL97:
 918              	.LEHE4:
 919 0388 93040500 		mv	s1,a0
 920              	.LVL98:
 921              	.LEHB5:
 922              	.LBB59:
 923              	.LBB60:
  32:test/threadId.cpp **** 
 924              		.loc 1 32 23
 925 038c 97000000 		call	_ZN6ThreadC2Ev@plt
 925      E7800000 
 926              	.LVL99:
 927              	.LEHE5:
 928 0394 97070000 		lla	a5,_ZTV8WorkerTC+16
 928      93870700 
 929 039c 23B0F400 		sd	a5,0(s1)
 930              	.LVL100:
 931              	.LBE60:
 932              	.LBE59:
 933              		.loc 1 93 16
 934 03a0 233894FC 		sd	s1,-48(s0)
  94:test/threadId.cpp ****     printString("ThreadC created\n");
 935              		.loc 1 94 5 is_stmt 1
 936              		.loc 1 94 16 is_stmt 0
GAS LISTING /tmp/cc7DhlM3.s 			page 22


 937 03a4 17050000 		lla	a0,.LC10
 937      13050500 
 938              	.LEHB6:
 939 03ac 97000000 		call	_Z11printStringPKc@plt
 939      E7800000 
 940              	.LVL101:
 941              	.LBB61:
  95:test/threadId.cpp **** 
  96:test/threadId.cpp ****     for(int i=0; i<3; i++) {
 942              		.loc 1 96 13
 943 03b4 93040000 		li	s1,0
 944              	.L45:
 945              	.LVL102:
 946              		.loc 1 96 19 is_stmt 1 discriminator 1
 947 03b8 93072000 		li	a5,2
 948 03bc 63C69702 		bgt	s1,a5,.L44
  97:test/threadId.cpp ****         threads[i]->start();
 949              		.loc 1 97 9
 950              		.loc 1 97 18 is_stmt 0
 951 03c0 93973400 		slli	a5,s1,3
 952 03c4 130704FE 		addi	a4,s0,-32
 953 03c8 B307F700 		add	a5,a4,a5
 954              		.loc 1 97 26
 955 03cc 03B507FE 		ld	a0,-32(a5)
 956 03d0 97000000 		call	_ZN6Thread5startEv@plt
 956      E7800000 
 957              	.LVL103:
  96:test/threadId.cpp ****         threads[i]->start();
 958              		.loc 1 96 5 is_stmt 1
 959 03d8 9B841400 		addiw	s1,s1,1
 960              	.LVL104:
 961 03dc 6FF0DFFD 		j	.L45
 962              	.LVL105:
 963              	.L46:
 964              	.LBE61:
  98:test/threadId.cpp ****     }
  99:test/threadId.cpp **** 
 100:test/threadId.cpp ****     while (!(finishedA && finishedB && finishedC)) {
 101:test/threadId.cpp ****         Thread::dispatch();
 965              		.loc 1 101 9
 966              		.loc 1 101 25 is_stmt 0
 967 03e0 97000000 		call	_ZN6Thread8dispatchEv@plt
 967      E7800000 
 968              	.LVL106:
 969              	.LEHE6:
 970              	.L44:
 100:test/threadId.cpp ****         Thread::dispatch();
 971              		.loc 1 100 5 is_stmt 1
 100:test/threadId.cpp ****         Thread::dispatch();
 972              		.loc 1 100 12
 100:test/threadId.cpp ****         Thread::dispatch();
 973              		.loc 1 100 14 is_stmt 0
 974 03e8 97070000 		lbu	a5,.LANCHOR0
 974      83C70700 
 100:test/threadId.cpp ****         Thread::dispatch();
 975              		.loc 1 100 12
 976 03f0 E38807FE 		beqz	a5,.L46
GAS LISTING /tmp/cc7DhlM3.s 			page 23


 100:test/threadId.cpp ****         Thread::dispatch();
 977              		.loc 1 100 27 discriminator 2
 978 03f4 97070000 		lbu	a5,.LANCHOR0+1
 978      83C70700 
 100:test/threadId.cpp ****         Thread::dispatch();
 979              		.loc 1 100 24 discriminator 2
 980 03fc E38207FE 		beqz	a5,.L46
 100:test/threadId.cpp ****         Thread::dispatch();
 981              		.loc 1 100 40 discriminator 4
 982 0400 97070000 		lbu	a5,.LANCHOR0+2
 982      83C70700 
 100:test/threadId.cpp ****         Thread::dispatch();
 983              		.loc 1 100 12 discriminator 4
 984 0408 E38C07FC 		beqz	a5,.L46
 985 040c 930404FC 		addi	s1,s0,-64
 986              	.LVL107:
 987 0410 6F008000 		j	.L47
 988              	.LVL108:
 989              	.L49:
 990              	.LBB62:
 102:test/threadId.cpp ****     }
 103:test/threadId.cpp **** 
 104:test/threadId.cpp ****     for (auto thread: threads) { delete thread; }
 991              		.loc 1 104 5 is_stmt 1 discriminator 5
 992 0414 93848400 		addi	s1,s1,8
 993              	.LVL109:
 994              	.L47:
 995              		.loc 1 104 23 discriminator 6
 996 0418 930704FE 		addi	a5,s0,-32
 997 041c 6388F406 		beq	s1,a5,.L43
 998              		.loc 1 104 15 is_stmt 0 discriminator 2
 999 0420 03B50400 		ld	a0,0(s1)
 1000              	.LVL110:
 1001              		.loc 1 104 34 is_stmt 1 discriminator 2
 1002              		.loc 1 104 47 is_stmt 0 discriminator 2
 1003 0424 E30805FE 		beqz	a0,.L49
 1004              		.loc 1 104 41 discriminator 3
 1005 0428 83370500 		ld	a5,0(a0)
 1006 042c 83B78700 		ld	a5,8(a5)
 1007 0430 E7800700 		jalr	a5
 1008              	.LVL111:
 1009 0434 6FF01FFE 		j	.L49
 1010              	.LVL112:
 1011              	.L54:
 1012 0438 13090500 		mv	s2,a0
 1013              	.LBE62:
  87:test/threadId.cpp ****     printString("ThreadA created\n");
 1014              		.loc 1 87 31
 1015 043c 13850400 		mv	a0,s1
 1016 0440 97000000 		call	_ZdlPv@plt
 1016      E7800000 
 1017              	.LVL113:
 1018 0448 13050900 		mv	a0,s2
 1019              	.LEHB7:
 1020 044c 97000000 		call	_Unwind_Resume@plt
 1020      E7800000 
 1021              	.LVL114:
GAS LISTING /tmp/cc7DhlM3.s 			page 24


 1022              	.LEHE7:
 1023              	.L55:
 1024 0454 13090500 		mv	s2,a0
  90:test/threadId.cpp ****     printString("ThreadB created\n");
 1025              		.loc 1 90 31
 1026 0458 13850400 		mv	a0,s1
 1027 045c 97000000 		call	_ZdlPv@plt
 1027      E7800000 
 1028              	.LVL115:
 1029 0464 13050900 		mv	a0,s2
 1030              	.LEHB8:
 1031 0468 97000000 		call	_Unwind_Resume@plt
 1031      E7800000 
 1032              	.LVL116:
 1033              	.LEHE8:
 1034              	.L56:
 1035 0470 13090500 		mv	s2,a0
  93:test/threadId.cpp ****     printString("ThreadC created\n");
 1036              		.loc 1 93 31
 1037 0474 13850400 		mv	a0,s1
 1038 0478 97000000 		call	_ZdlPv@plt
 1038      E7800000 
 1039              	.LVL117:
 1040 0480 13050900 		mv	a0,s2
 1041              	.LEHB9:
 1042 0484 97000000 		call	_Unwind_Resume@plt
 1042      E7800000 
 1043              	.LVL118:
 1044              	.LEHE9:
 1045              	.L43:
 105:test/threadId.cpp **** }...
 1046              		.loc 1 105 1
 1047 048c 83308103 		ld	ra,56(sp)
 1048              		.cfi_restore 1
 1049 0490 03340103 		ld	s0,48(sp)
 1050              		.cfi_restore 8
 1051              		.cfi_def_cfa 2, 64
 1052 0494 83348102 		ld	s1,40(sp)
 1053              		.cfi_restore 9
 1054              	.LVL119:
 1055 0498 03390102 		ld	s2,32(sp)
 1056              		.cfi_restore 18
 1057 049c 13010104 		addi	sp,sp,64
 1058              		.cfi_def_cfa_offset 0
 1059 04a0 67800000 		jr	ra
 1060              		.cfi_endproc
 1061              	.LFE16:
 1062              		.globl	__gxx_personality_v0
 1063              		.section	.gcc_except_table,"a",@progbits
 1064              	.LLSDA16:
 1065 0000 FF       		.byte	0xff
 1066 0001 FF       		.byte	0xff
 1067 0002 03       		.byte	0x3
 1068 0003 8201     		.byte	0x82,0x1
 1069 0005 00000000 		.4byte	.LEHB0-.LFB16
 1070 0009 00000000 		.4byte	.LEHE0-.LEHB0
 1071 000d 00000000 		.4byte	0
GAS LISTING /tmp/cc7DhlM3.s 			page 25


 1072 0011 00       		.byte	0
 1073 0012 00000000 		.4byte	.LEHB1-.LFB16
 1074 0016 00000000 		.4byte	.LEHE1-.LEHB1
 1075 001a 00000000 		.4byte	.L54-.LFB16
 1076 001e 00       		.byte	0
 1077 001f 00000000 		.4byte	.LEHB2-.LFB16
 1078 0023 00000000 		.4byte	.LEHE2-.LEHB2
 1079 0027 00000000 		.4byte	0
 1080 002b 00       		.byte	0
 1081 002c 00000000 		.4byte	.LEHB3-.LFB16
 1082 0030 00000000 		.4byte	.LEHE3-.LEHB3
 1083 0034 00000000 		.4byte	.L55-.LFB16
 1084 0038 00       		.byte	0
 1085 0039 00000000 		.4byte	.LEHB4-.LFB16
 1086 003d 00000000 		.4byte	.LEHE4-.LEHB4
 1087 0041 00000000 		.4byte	0
 1088 0045 00       		.byte	0
 1089 0046 00000000 		.4byte	.LEHB5-.LFB16
 1090 004a 00000000 		.4byte	.LEHE5-.LEHB5
 1091 004e 00000000 		.4byte	.L56-.LFB16
 1092 0052 00       		.byte	0
 1093 0053 00000000 		.4byte	.LEHB6-.LFB16
 1094 0057 00000000 		.4byte	.LEHE6-.LEHB6
 1095 005b 00000000 		.4byte	0
 1096 005f 00       		.byte	0
 1097 0060 00000000 		.4byte	.LEHB7-.LFB16
 1098 0064 00000000 		.4byte	.LEHE7-.LEHB7
 1099 0068 00000000 		.4byte	0
 1100 006c 00       		.byte	0
 1101 006d 00000000 		.4byte	.LEHB8-.LFB16
 1102 0071 00000000 		.4byte	.LEHE8-.LEHB8
 1103 0075 00000000 		.4byte	0
 1104 0079 00       		.byte	0
 1105 007a 00000000 		.4byte	.LEHB9-.LFB16
 1106 007e 00000000 		.4byte	.LEHE9-.LEHB9
 1107 0082 00000000 		.4byte	0
 1108 0086 00       		.byte	0
 1109              		.text
 1111              		.weak	_ZTV8WorkerTA
 1112              		.section	.data.rel.ro.local._ZTV8WorkerTA,"awG",@progbits,_ZTV8WorkerTA,comdat
 1113              		.align	3
 1116              	_ZTV8WorkerTA:
 1117 0000 00000000 		.dword	0
 1117      00000000 
 1118 0008 00000000 		.dword	0
 1118      00000000 
 1119 0010 00000000 		.dword	_ZN8WorkerTAD1Ev
 1119      00000000 
 1120 0018 00000000 		.dword	_ZN8WorkerTAD0Ev
 1120      00000000 
 1121 0020 00000000 		.dword	_ZN8WorkerTA3runEv
 1121      00000000 
 1122              		.weak	_ZTV8WorkerTB
 1123              		.section	.data.rel.ro.local._ZTV8WorkerTB,"awG",@progbits,_ZTV8WorkerTB,comdat
 1124              		.align	3
 1127              	_ZTV8WorkerTB:
 1128 0000 00000000 		.dword	0
GAS LISTING /tmp/cc7DhlM3.s 			page 26


 1128      00000000 
 1129 0008 00000000 		.dword	0
 1129      00000000 
 1130 0010 00000000 		.dword	_ZN8WorkerTBD1Ev
 1130      00000000 
 1131 0018 00000000 		.dword	_ZN8WorkerTBD0Ev
 1131      00000000 
 1132 0020 00000000 		.dword	_ZN8WorkerTB3runEv
 1132      00000000 
 1133              		.weak	_ZTV8WorkerTC
 1134              		.section	.data.rel.ro.local._ZTV8WorkerTC,"awG",@progbits,_ZTV8WorkerTC,comdat
 1135              		.align	3
 1138              	_ZTV8WorkerTC:
 1139 0000 00000000 		.dword	0
 1139      00000000 
 1140 0008 00000000 		.dword	0
 1140      00000000 
 1141 0010 00000000 		.dword	_ZN8WorkerTCD1Ev
 1141      00000000 
 1142 0018 00000000 		.dword	_ZN8WorkerTCD0Ev
 1142      00000000 
 1143 0020 00000000 		.dword	_ZN8WorkerTC3runEv
 1143      00000000 
 1144              		.bss
 1145              		.set	.LANCHOR0,. + 0
 1148              	_ZL9finishedA:
 1149 0000 00       		.zero	1
 1152              	_ZL9finishedB:
 1153 0001 00       		.zero	1
 1156              	_ZL9finishedC:
 1157 0002 00       		.zero	1
 1158              		.text
 1159              	.Letext0:
 1160              		.file 2 "test/../h/../lib/hw.h"
 1161              		.file 3 "test/../h/syscall_cpp.hpp"
 1162              		.file 4 "test/../h/syscall_c.h"
 1163              		.file 5 "test/printing.hpp"
 4286              		.align	3
 4289              	DW.ref.__gxx_personality_v0:
 4290 0000 00000000 		.dword	__gxx_personality_v0
 4290      00000000 
 4291              		.ident	"GCC: (Ubuntu 9.4.0-1ubuntu1~20.04) 9.4.0"
 4292              		.section	.note.GNU-stack,"",@progbits
GAS LISTING /tmp/cc7DhlM3.s 			page 27

