GAS LISTING /tmp/ccFuhPYi.s 			page 1


   1              		.file	"_new.cpp"
   2              		.option pic
   3              		.option norelax
   4              		.text
   5              	.Ltext0:
   6              		.align	2
   7              		.globl	_Znwm
   9              	_Znwm:
  10              	.LFB0:
  11              		.file 1 "src/_new.cpp"
   1:src/_new.cpp  **** #include "../h/syscall_c.h"
   2:src/_new.cpp  **** 
   3:src/_new.cpp  **** //preuzeto sa vezbi
   4:src/_new.cpp  **** 
   5:src/_new.cpp  **** void *operator new(size_t n)
   6:src/_new.cpp  **** {
  12              		.loc 1 6 1
  13              		.cfi_startproc
  14              	.LVL0:
  15 0000 130101FF 		addi	sp,sp,-16
  16              		.cfi_def_cfa_offset 16
  17 0004 23341100 		sd	ra,8(sp)
  18 0008 23308100 		sd	s0,0(sp)
  19              		.cfi_offset 1, -8
  20              		.cfi_offset 8, -16
  21 000c 13040101 		addi	s0,sp,16
  22              		.cfi_def_cfa 8, 0
   7:src/_new.cpp  ****     return mem_alloc(n);
  23              		.loc 1 7 5
  24              		.loc 1 7 21 is_stmt 0
  25 0010 97000000 		call	_Z9mem_allocm@plt
  25      E7800000 
  26              	.LVL1:
   8:src/_new.cpp  **** }
  27              		.loc 1 8 1
  28 0018 83308100 		ld	ra,8(sp)
  29              		.cfi_restore 1
  30 001c 03340100 		ld	s0,0(sp)
  31              		.cfi_restore 8
  32              		.cfi_def_cfa 2, 16
  33 0020 13010101 		addi	sp,sp,16
  34              		.cfi_def_cfa_offset 0
  35 0024 67800000 		jr	ra
  36              		.cfi_endproc
  37              	.LFE0:
  39              		.align	2
  40              		.globl	_Znam
  42              	_Znam:
  43              	.LFB1:
   9:src/_new.cpp  **** 
  10:src/_new.cpp  **** void *operator new[](size_t n)
  11:src/_new.cpp  **** {
  44              		.loc 1 11 1 is_stmt 1
  45              		.cfi_startproc
  46              	.LVL2:
  47 0028 130101FF 		addi	sp,sp,-16
  48              		.cfi_def_cfa_offset 16
GAS LISTING /tmp/ccFuhPYi.s 			page 2


  49 002c 23341100 		sd	ra,8(sp)
  50 0030 23308100 		sd	s0,0(sp)
  51              		.cfi_offset 1, -8
  52              		.cfi_offset 8, -16
  53 0034 13040101 		addi	s0,sp,16
  54              		.cfi_def_cfa 8, 0
  12:src/_new.cpp  ****     return mem_alloc(n);
  55              		.loc 1 12 5
  56              		.loc 1 12 21 is_stmt 0
  57 0038 97000000 		call	_Z9mem_allocm@plt
  57      E7800000 
  58              	.LVL3:
  13:src/_new.cpp  **** }
  59              		.loc 1 13 1
  60 0040 83308100 		ld	ra,8(sp)
  61              		.cfi_restore 1
  62 0044 03340100 		ld	s0,0(sp)
  63              		.cfi_restore 8
  64              		.cfi_def_cfa 2, 16
  65 0048 13010101 		addi	sp,sp,16
  66              		.cfi_def_cfa_offset 0
  67 004c 67800000 		jr	ra
  68              		.cfi_endproc
  69              	.LFE1:
  71              		.align	2
  72              		.globl	_ZdlPv
  74              	_ZdlPv:
  75              	.LFB2:
  14:src/_new.cpp  **** 
  15:src/_new.cpp  **** void operator delete(void *p)
  16:src/_new.cpp  **** {
  76              		.loc 1 16 1 is_stmt 1
  77              		.cfi_startproc
  78              	.LVL4:
  17:src/_new.cpp  ****     if (p != nullptr)
  79              		.loc 1 17 5
  80 0050 63060502 		beqz	a0,.L8
  16:src/_new.cpp  ****     if (p != nullptr)
  81              		.loc 1 16 1 is_stmt 0
  82 0054 130101FF 		addi	sp,sp,-16
  83              		.cfi_def_cfa_offset 16
  84 0058 23341100 		sd	ra,8(sp)
  85 005c 23308100 		sd	s0,0(sp)
  86              		.cfi_offset 1, -8
  87              		.cfi_offset 8, -16
  88 0060 13040101 		addi	s0,sp,16
  89              		.cfi_def_cfa 8, 0
  18:src/_new.cpp  ****         mem_free(p);
  90              		.loc 1 18 9 is_stmt 1
  91              		.loc 1 18 17 is_stmt 0
  92 0064 97000000 		call	_Z8mem_freePv@plt
  92      E7800000 
  93              	.LVL5:
  19:src/_new.cpp  **** }
  94              		.loc 1 19 1
  95 006c 83308100 		ld	ra,8(sp)
  96              		.cfi_restore 1
GAS LISTING /tmp/ccFuhPYi.s 			page 3


  97 0070 03340100 		ld	s0,0(sp)
  98              		.cfi_restore 8
  99              		.cfi_def_cfa 2, 16
 100 0074 13010101 		addi	sp,sp,16
 101              		.cfi_def_cfa_offset 0
 102 0078 67800000 		jr	ra
 103              	.LVL6:
 104              	.L8:
 105 007c 67800000 		ret
 106              		.cfi_endproc
 107              	.LFE2:
 109              		.align	2
 110              		.globl	_ZdaPv
 112              	_ZdaPv:
 113              	.LFB3:
  20:src/_new.cpp  **** 
  21:src/_new.cpp  **** void operator delete[](void *p)
  22:src/_new.cpp  **** {
 114              		.loc 1 22 1 is_stmt 1
 115              		.cfi_startproc
 116              	.LVL7:
  23:src/_new.cpp  ****     if (p != nullptr)
 117              		.loc 1 23 5
 118 0080 63060502 		beqz	a0,.L14
  22:src/_new.cpp  ****     if (p != nullptr)
 119              		.loc 1 22 1 is_stmt 0
 120 0084 130101FF 		addi	sp,sp,-16
 121              		.cfi_def_cfa_offset 16
 122 0088 23341100 		sd	ra,8(sp)
 123 008c 23308100 		sd	s0,0(sp)
 124              		.cfi_offset 1, -8
 125              		.cfi_offset 8, -16
 126 0090 13040101 		addi	s0,sp,16
 127              		.cfi_def_cfa 8, 0
  24:src/_new.cpp  ****         mem_free(p);
 128              		.loc 1 24 9 is_stmt 1
 129              		.loc 1 24 17 is_stmt 0
 130 0094 97000000 		call	_Z8mem_freePv@plt
 130      E7800000 
 131              	.LVL8:
  25:src/_new.cpp  **** }...
 132              		.loc 1 25 1
 133 009c 83308100 		ld	ra,8(sp)
 134              		.cfi_restore 1
 135 00a0 03340100 		ld	s0,0(sp)
 136              		.cfi_restore 8
 137              		.cfi_def_cfa 2, 16
 138 00a4 13010101 		addi	sp,sp,16
 139              		.cfi_def_cfa_offset 0
 140 00a8 67800000 		jr	ra
 141              	.LVL9:
 142              	.L14:
 143 00ac 67800000 		ret
 144              		.cfi_endproc
 145              	.LFE3:
 147              	.Letext0:
 148              		.file 2 "src/../h/../lib/hw.h"
GAS LISTING /tmp/ccFuhPYi.s 			page 4


 149              		.file 3 "src/../h/syscall_c.h"
GAS LISTING /tmp/ccFuhPYi.s 			page 5

