GAS LISTING /tmp/ccu5T8LY.s 			page 1


   1              		.file	"console.cpp"
   2              		.option pic
   3              		.option norelax
   4              		.text
   5              	.Ltext0:
   6              		.align	2
   7              		.globl	_ZN7Console7getCharEv
   9              	_ZN7Console7getCharEv:
  10              	.LFB57:
  11              		.file 1 "src/console.cpp"
   1:src/console.cpp **** #include "../h/console.h"
   2:src/console.cpp **** 
   3:src/console.cpp **** char Console::getChar() {
  12              		.loc 1 3 25
  13              		.cfi_startproc
  14              	.LVL0:
  15 0000 130101FE 		addi	sp,sp,-32
  16              		.cfi_def_cfa_offset 32
  17 0004 233C1100 		sd	ra,24(sp)
  18 0008 23388100 		sd	s0,16(sp)
  19 000c 23349100 		sd	s1,8(sp)
  20 0010 23302101 		sd	s2,0(sp)
  21              		.cfi_offset 1, -8
  22              		.cfi_offset 8, -16
  23              		.cfi_offset 9, -24
  24              		.cfi_offset 18, -32
  25 0014 13040102 		addi	s0,sp,32
  26              		.cfi_def_cfa 8, 0
  27 0018 93040500 		mv	s1,a0
   4:src/console.cpp **** 
   5:src/console.cpp ****     SEM::semWait(items);
  28              		.loc 1 5 5
  29              		.loc 1 5 17 is_stmt 0
  30 001c 03350502 		ld	a0,32(a0)
  31              	.LVL1:
  32 0020 97000000 		call	_ZN3SEM7semWaitEPS_@plt
  32      E7800000 
  33              	.LVL2:
   6:src/console.cpp ****     char c = buffer[head];
  34              		.loc 1 6 5 is_stmt 1
  35              		.loc 1 6 14 is_stmt 0
  36 0028 03B70401 		ld	a4,16(s1)
  37              		.loc 1 6 21
  38 002c 83A78400 		lw	a5,8(s1)
  39              		.loc 1 6 25
  40 0030 3307F700 		add	a4,a4,a5
  41              		.loc 1 6 10
  42 0034 03490700 		lbu	s2,0(a4)
  43              	.LVL3:
   7:src/console.cpp ****     head= (head + 1) % capacity;
  44              		.loc 1 7 5 is_stmt 1
  45              		.loc 1 7 17 is_stmt 0
  46 0038 9B871700 		addiw	a5,a5,1
  47              		.loc 1 7 22
  48 003c 1BD7F741 		sraiw	a4,a5,31
  49 0040 1B576701 		srliw	a4,a4,22
  50 0044 BB87E700 		addw	a5,a5,a4
GAS LISTING /tmp/ccu5T8LY.s 			page 2


  51 0048 93F7F73F 		andi	a5,a5,1023
  52 004c BB87E740 		subw	a5,a5,a4
  53              		.loc 1 7 9
  54 0050 23A4F400 		sw	a5,8(s1)
   8:src/console.cpp ****     size--;
  55              		.loc 1 8 5 is_stmt 1
  56 0054 83A74400 		lw	a5,4(s1)
  57              		.loc 1 8 9 is_stmt 0
  58 0058 9B87F7FF 		addiw	a5,a5,-1
  59 005c 23A2F400 		sw	a5,4(s1)
   9:src/console.cpp ****     SEM::semSignal(spaces);
  60              		.loc 1 9 5 is_stmt 1
  61              		.loc 1 9 19 is_stmt 0
  62 0060 03B58401 		ld	a0,24(s1)
  63 0064 97000000 		call	_ZN3SEM9semSignalEPS_@plt
  63      E7800000 
  64              	.LVL4:
  10:src/console.cpp **** 
  11:src/console.cpp ****     return c;
  65              		.loc 1 11 5 is_stmt 1
  12:src/console.cpp **** }
  66              		.loc 1 12 1 is_stmt 0
  67 006c 13050900 		mv	a0,s2
  68 0070 83308101 		ld	ra,24(sp)
  69              		.cfi_restore 1
  70 0074 03340101 		ld	s0,16(sp)
  71              		.cfi_restore 8
  72              		.cfi_def_cfa 2, 32
  73 0078 83348100 		ld	s1,8(sp)
  74              		.cfi_restore 9
  75              	.LVL5:
  76 007c 03390100 		ld	s2,0(sp)
  77              		.cfi_restore 18
  78              	.LVL6:
  79 0080 13010102 		addi	sp,sp,32
  80              		.cfi_def_cfa_offset 0
  81 0084 67800000 		jr	ra
  82              		.cfi_endproc
  83              	.LFE57:
  85              		.align	2
  86              		.globl	_ZN7Console7putCharEc
  88              	_ZN7Console7putCharEc:
  89              	.LFB58:
  13:src/console.cpp **** 
  14:src/console.cpp **** void Console::putChar(char c) {
  90              		.loc 1 14 31 is_stmt 1
  91              		.cfi_startproc
  92              	.LVL7:
  93 0088 130101FE 		addi	sp,sp,-32
  94              		.cfi_def_cfa_offset 32
  95 008c 233C1100 		sd	ra,24(sp)
  96 0090 23388100 		sd	s0,16(sp)
  97 0094 23349100 		sd	s1,8(sp)
  98 0098 23302101 		sd	s2,0(sp)
  99              		.cfi_offset 1, -8
 100              		.cfi_offset 8, -16
 101              		.cfi_offset 9, -24
GAS LISTING /tmp/ccu5T8LY.s 			page 3


 102              		.cfi_offset 18, -32
 103 009c 13040102 		addi	s0,sp,32
 104              		.cfi_def_cfa 8, 0
 105 00a0 93040500 		mv	s1,a0
 106 00a4 13890500 		mv	s2,a1
  15:src/console.cpp **** 
  16:src/console.cpp ****     SEM::semWait(spaces);
 107              		.loc 1 16 5
 108              		.loc 1 16 17 is_stmt 0
 109 00a8 03358501 		ld	a0,24(a0)
 110              	.LVL8:
 111 00ac 97000000 		call	_ZN3SEM7semWaitEPS_@plt
 111      E7800000 
 112              	.LVL9:
  17:src/console.cpp **** //    sem_wait(spaces);
  18:src/console.cpp ****     buffer[tail] = c;
 113              		.loc 1 18 5 is_stmt 1
 114 00b4 83B70401 		ld	a5,16(s1)
 115              		.loc 1 18 12 is_stmt 0
 116 00b8 03A7C400 		lw	a4,12(s1)
 117              		.loc 1 18 16
 118 00bc B387E700 		add	a5,a5,a4
 119              		.loc 1 18 18
 120 00c0 23802701 		sb	s2,0(a5)
  19:src/console.cpp ****     tail = (tail + 1) % capacity;
 121              		.loc 1 19 5 is_stmt 1
 122              		.loc 1 19 13 is_stmt 0
 123 00c4 83A7C400 		lw	a5,12(s1)
 124              		.loc 1 19 18
 125 00c8 9B871700 		addiw	a5,a5,1
 126              		.loc 1 19 23
 127 00cc 1BD7F741 		sraiw	a4,a5,31
 128 00d0 1B576701 		srliw	a4,a4,22
 129 00d4 BB87E700 		addw	a5,a5,a4
 130 00d8 93F7F73F 		andi	a5,a5,1023
 131 00dc BB87E740 		subw	a5,a5,a4
 132              		.loc 1 19 10
 133 00e0 23A6F400 		sw	a5,12(s1)
  20:src/console.cpp ****     size++;
 134              		.loc 1 20 5 is_stmt 1
 135 00e4 83A74400 		lw	a5,4(s1)
 136              		.loc 1 20 9 is_stmt 0
 137 00e8 9B871700 		addiw	a5,a5,1
 138 00ec 23A2F400 		sw	a5,4(s1)
  21:src/console.cpp **** //    sem_wait(items);
  22:src/console.cpp ****     SEM::semSignal(items);
 139              		.loc 1 22 5 is_stmt 1
 140              		.loc 1 22 19 is_stmt 0
 141 00f0 03B50402 		ld	a0,32(s1)
 142 00f4 97000000 		call	_ZN3SEM9semSignalEPS_@plt
 142      E7800000 
 143              	.LVL10:
  23:src/console.cpp **** 
  24:src/console.cpp **** }
 144              		.loc 1 24 1
 145 00fc 83308101 		ld	ra,24(sp)
 146              		.cfi_restore 1
GAS LISTING /tmp/ccu5T8LY.s 			page 4


 147 0100 03340101 		ld	s0,16(sp)
 148              		.cfi_restore 8
 149              		.cfi_def_cfa 2, 32
 150 0104 83348100 		ld	s1,8(sp)
 151              		.cfi_restore 9
 152              	.LVL11:
 153 0108 03390100 		ld	s2,0(sp)
 154              		.cfi_restore 18
 155 010c 13010102 		addi	sp,sp,32
 156              		.cfi_def_cfa_offset 0
 157 0110 67800000 		jr	ra
 158              		.cfi_endproc
 159              	.LFE58:
 161              		.align	2
 162              		.globl	_ZN7Console9systemGetEv
 164              	_ZN7Console9systemGetEv:
 165              	.LFB59:
  25:src/console.cpp **** 
  26:src/console.cpp **** char Console::systemGet() {
 166              		.loc 1 26 27 is_stmt 1
 167              		.cfi_startproc
 168              	.LVL12:
 169 0114 130101FE 		addi	sp,sp,-32
 170              		.cfi_def_cfa_offset 32
 171 0118 233C1100 		sd	ra,24(sp)
 172 011c 23388100 		sd	s0,16(sp)
 173 0120 23349100 		sd	s1,8(sp)
 174 0124 23302101 		sd	s2,0(sp)
 175              		.cfi_offset 1, -8
 176              		.cfi_offset 8, -16
 177              		.cfi_offset 9, -24
 178              		.cfi_offset 18, -32
 179 0128 13040102 		addi	s0,sp,32
 180              		.cfi_def_cfa 8, 0
 181 012c 93040500 		mv	s1,a0
  27:src/console.cpp **** 
  28:src/console.cpp ****     sem_wait(items);
 182              		.loc 1 28 5
 183              		.loc 1 28 13 is_stmt 0
 184 0130 03350502 		ld	a0,32(a0)
 185              	.LVL13:
 186 0134 97000000 		call	_Z8sem_waitP3SEM@plt
 186      E7800000 
 187              	.LVL14:
  29:src/console.cpp ****     char c = buffer[head++];
 188              		.loc 1 29 5 is_stmt 1
 189              		.loc 1 29 14 is_stmt 0
 190 013c 03B70401 		ld	a4,16(s1)
 191              		.loc 1 29 21
 192 0140 83A68400 		lw	a3,8(s1)
 193              		.loc 1 29 25
 194 0144 9B871600 		addiw	a5,a3,1
 195 0148 23A4F400 		sw	a5,8(s1)
 196              		.loc 1 29 27
 197 014c 3307D700 		add	a4,a4,a3
 198 0150 03490700 		lbu	s2,0(a4)
 199              	.LVL15:
GAS LISTING /tmp/ccu5T8LY.s 			page 5


  30:src/console.cpp ****     head = head % capacity;
 200              		.loc 1 30 5 is_stmt 1
 201              		.loc 1 30 17 is_stmt 0
 202 0154 1BD7F741 		sraiw	a4,a5,31
 203 0158 1B576701 		srliw	a4,a4,22
 204 015c BB87E700 		addw	a5,a5,a4
 205 0160 93F7F73F 		andi	a5,a5,1023
 206 0164 BB87E740 		subw	a5,a5,a4
 207              		.loc 1 30 10
 208 0168 23A4F400 		sw	a5,8(s1)
  31:src/console.cpp ****     size--;
 209              		.loc 1 31 5 is_stmt 1
 210 016c 83A74400 		lw	a5,4(s1)
 211              		.loc 1 31 9 is_stmt 0
 212 0170 9B87F7FF 		addiw	a5,a5,-1
 213 0174 23A2F400 		sw	a5,4(s1)
  32:src/console.cpp ****     sem_signal(spaces);
 214              		.loc 1 32 5 is_stmt 1
 215              		.loc 1 32 15 is_stmt 0
 216 0178 03B58401 		ld	a0,24(s1)
 217 017c 97000000 		call	_Z10sem_signalP3SEM@plt
 217      E7800000 
 218              	.LVL16:
  33:src/console.cpp **** 
  34:src/console.cpp ****     return c;
 219              		.loc 1 34 5 is_stmt 1
  35:src/console.cpp **** }...
 220              		.loc 1 35 1 is_stmt 0
 221 0184 13050900 		mv	a0,s2
 222 0188 83308101 		ld	ra,24(sp)
 223              		.cfi_restore 1
 224 018c 03340101 		ld	s0,16(sp)
 225              		.cfi_restore 8
 226              		.cfi_def_cfa 2, 32
 227 0190 83348100 		ld	s1,8(sp)
 228              		.cfi_restore 9
 229              	.LVL17:
 230 0194 03390100 		ld	s2,0(sp)
 231              		.cfi_restore 18
 232              	.LVL18:
 233 0198 13010102 		addi	sp,sp,32
 234              		.cfi_def_cfa_offset 0
 235 019c 67800000 		jr	ra
 236              		.cfi_endproc
 237              	.LFE59:
 239              	.Letext0:
 240              		.file 2 "src/../h/../h/../lib/hw.h"
 241              		.file 3 "src/../h/../h/../h/list.h"
 242              		.file 4 "src/../h/../h/../h/tcb.h"
 243              		.file 5 "src/../h/../h/../h/../h/syscall_c.h"
 244              		.file 6 "src/../h/../h/sem.h"
 245              		.file 7 "src/../h/console.h"
GAS LISTING /tmp/ccu5T8LY.s 			page 6

