GAS LISTING /tmp/ccpyAonF.s 			page 1


   1              		.file	"mem.cpp"
   2              		.option pic
   3              		.option norelax
   4              		.text
   5              	.Ltext0:
   6              		.align	2
   7              		.globl	_ZN3MEM8memAllocEm
   9              	_ZN3MEM8memAllocEm:
  10              	.LFB4:
  11              		.file 1 "src/mem.cpp"
   1:src/mem.cpp   **** #include "../h/mem.h"
   2:src/mem.cpp   **** 
   3:src/mem.cpp   **** MEM::FullSpace* MEM::fullHead = nullptr;
   4:src/mem.cpp   **** MEM::FreeSpace* MEM::freeHead = nullptr;
   5:src/mem.cpp   **** 
   6:src/mem.cpp   **** void MEM::init(){
   7:src/mem.cpp   ****     freeHead = (FreeSpace*)HEAP_START_ADDR;
   8:src/mem.cpp   **** 
   9:src/mem.cpp   ****     freeHead->size = (size_t)HEAP_END_ADDR - (size_t)HEAP_START_ADDR;
  10:src/mem.cpp   ****     freeHead->prev = nullptr;
  11:src/mem.cpp   ****     freeHead->next = nullptr;
  12:src/mem.cpp   **** 
  13:src/mem.cpp   ****     MEM::memAlloc((sizeof(MEM) + MEM_BLOCK_SIZE - 1) / MEM_BLOCK_SIZE);
  14:src/mem.cpp   **** }
  15:src/mem.cpp   **** 
  16:src/mem.cpp   **** void *MEM::memAlloc(size_t size) {
  12              		.loc 1 16 34
  13              		.cfi_startproc
  14              	.LVL0:
  15 0000 130101FF 		addi	sp,sp,-16
  16              		.cfi_def_cfa_offset 16
  17 0004 23348100 		sd	s0,8(sp)
  18              		.cfi_offset 8, -8
  19 0008 13040101 		addi	s0,sp,16
  20              		.cfi_def_cfa 8, 0
  17:src/mem.cpp   **** 
  18:src/mem.cpp   ****     if (size <= 0)
  21              		.loc 1 18 5
  22 000c 63040512 		beqz	a0,.L18
  19:src/mem.cpp   ****         return nullptr;
  20:src/mem.cpp   **** 
  21:src/mem.cpp   ****     size_t neededSize = size * MEM_BLOCK_SIZE;
  23              		.loc 1 21 5
  24              		.loc 1 21 12 is_stmt 0
  25 0010 13176500 		slli	a4,a0,6
  26              	.LVL1:
  22:src/mem.cpp   ****     FreeSpace* freeSpace = freeHead;
  27              		.loc 1 22 5 is_stmt 1
  28              		.loc 1 22 16 is_stmt 0
  29 0014 17050000 		ld	a0,.LANCHOR0
  29      03350500 
  30              	.LVL2:
  31              	.L4:
  23:src/mem.cpp   **** 
  24:src/mem.cpp   ****     while(freeSpace != nullptr){
  32              		.loc 1 24 5 is_stmt 1
  33              		.loc 1 24 21
GAS LISTING /tmp/ccpyAonF.s 			page 2


  34 001c 6308050E 		beqz	a0,.L1
  35              	.LBB2:
  25:src/mem.cpp   ****         if(freeSpace->size < neededSize){
  36              		.loc 1 25 9
  37              	.LBB3:
  38              		.loc 1 25 23 is_stmt 0
  39 0020 83370500 		ld	a5,0(a0)
  40              		.loc 1 25 9
  41 0024 63E8E704 		bltu	a5,a4,.L22
  42              	.LBE3:
  43              	.LBE2:
  26:src/mem.cpp   ****             freeSpace = freeSpace->next;
  27:src/mem.cpp   ****             continue;
  28:src/mem.cpp   ****         }
  29:src/mem.cpp   ****         //ako ostane dovoljno mali prostor koji se nikada ne bi koristio leftover
  30:src/mem.cpp   ****         else if(freeSpace->size  < (neededSize + sizeof(FreeSpace))){
  44              		.loc 1 30 14 is_stmt 1
  45              	.LBB10:
  46              	.LBB7:
  47              	.LBB4:
  48              		.loc 1 30 48 is_stmt 0
  49 0028 93068701 		addi	a3,a4,24
  50              		.loc 1 30 14
  51 002c 63F0D706 		bgeu	a5,a3,.L5
  31:src/mem.cpp   **** 
  32:src/mem.cpp   ****             if(freeSpace->prev)
  52              		.loc 1 32 13 is_stmt 1
  53              		.loc 1 32 27 is_stmt 0
  54 0030 83378500 		ld	a5,8(a0)
  55              		.loc 1 32 13
  56 0034 63840704 		beqz	a5,.L6
  33:src/mem.cpp   ****                 freeSpace->prev->next = freeSpace->next;
  57              		.loc 1 33 17 is_stmt 1
  58              		.loc 1 33 52 is_stmt 0
  59 0038 83360501 		ld	a3,16(a0)
  60              		.loc 1 33 39
  61 003c 23B8D700 		sd	a3,16(a5)
  62              	.L7:
  34:src/mem.cpp   ****             else
  35:src/mem.cpp   ****                 freeHead = freeSpace->next;
  36:src/mem.cpp   **** 
  37:src/mem.cpp   ****             if(freeSpace->next)
  63              		.loc 1 37 13 is_stmt 1
  64              		.loc 1 37 27 is_stmt 0
  65 0040 83370501 		ld	a5,16(a0)
  66              		.loc 1 37 13
  67 0044 63860700 		beqz	a5,.L8
  38:src/mem.cpp   ****                 freeSpace->next->prev = freeSpace->prev;
  68              		.loc 1 38 17 is_stmt 1
  69              		.loc 1 38 52 is_stmt 0
  70 0048 83368500 		ld	a3,8(a0)
  71              		.loc 1 38 39
  72 004c 23B4D700 		sd	a3,8(a5)
  73              	.L8:
  74              	.LBE4:
  75              	.LBE7:
  39:src/mem.cpp   ****         }
GAS LISTING /tmp/ccpyAonF.s 			page 3


  40:src/mem.cpp   ****         else{
  41:src/mem.cpp   **** 
  42:src/mem.cpp   ****             //ostatak koji nije iskoriscen prevezati u slobodni segment
  43:src/mem.cpp   ****             auto* leftover = (FreeSpace*)(neededSize + (char*)freeSpace);
  44:src/mem.cpp   ****             leftover->prev = freeSpace->prev;
  45:src/mem.cpp   ****             leftover->next = freeSpace->next;
  46:src/mem.cpp   ****             leftover->size = freeSpace->size - neededSize;
  47:src/mem.cpp   **** 
  48:src/mem.cpp   ****             //skidanje referenci sa novozauzete memorije
  49:src/mem.cpp   ****             if(freeSpace->prev)
  50:src/mem.cpp   ****                 freeSpace->prev->next = leftover;
  51:src/mem.cpp   ****             else
  52:src/mem.cpp   ****                 freeHead = leftover;
  53:src/mem.cpp   **** 
  54:src/mem.cpp   ****             if(freeSpace->next)
  55:src/mem.cpp   ****                 freeSpace->next->prev = leftover;
  56:src/mem.cpp   ****         }
  57:src/mem.cpp   **** 
  58:src/mem.cpp   ****         //dolazak u punoj memoriji do elementa nakon kog treba da se uveze novi elem
  59:src/mem.cpp   ****         FullSpace* fullSpace = nullptr;
  76              		.loc 1 59 9 is_stmt 1
  77              	.LVL3:
  60:src/mem.cpp   ****         if (fullHead && (char*)freeSpace >= (char*)fullHead) {
  78              		.loc 1 60 9
  79              		.loc 1 60 52 is_stmt 0
  80 0050 97070000 		ld	a5,.LANCHOR0+8
  80      83B70700 
  81              		.loc 1 60 9
  82 0058 638E0706 		beqz	a5,.L19
  83              		.loc 1 60 22 discriminator 1
  84 005c 6360F508 		bgtu	a5,a0,.L20
  85              	.LVL4:
  86              	.L12:
  61:src/mem.cpp   **** 
  62:src/mem.cpp   ****             fullSpace = fullHead;
  63:src/mem.cpp   ****             while(fullSpace->next != nullptr && (char *)freeSpace > (char *)(fullSpace->next)){
  87              		.loc 1 63 13 is_stmt 1
  88              		.loc 1 63 46
  89 0060 93860700 		mv	a3,a5
  90              		.loc 1 63 30 is_stmt 0
  91 0064 83B70701 		ld	a5,16(a5)
  92              	.LVL5:
  93              		.loc 1 63 46
  94 0068 638C0706 		beqz	a5,.L11
  95              		.loc 1 63 46 discriminator 1
  96 006c E3EAA7FE 		bltu	a5,a0,.L12
  97 0070 6F000007 		j	.L11
  98              	.LVL6:
  99              	.L22:
 100              	.LBB8:
  26:src/mem.cpp   ****             continue;
 101              		.loc 1 26 13 is_stmt 1 discriminator 1
  26:src/mem.cpp   ****             continue;
 102              		.loc 1 26 23 is_stmt 0 discriminator 1
 103 0074 03350501 		ld	a0,16(a0)
 104              	.LVL7:
  27:src/mem.cpp   ****         }
GAS LISTING /tmp/ccpyAonF.s 			page 4


 105              		.loc 1 27 13 is_stmt 1 discriminator 1
 106              	.LBE8:
 107              	.LBE10:
  24:src/mem.cpp   ****         if(freeSpace->size < neededSize){
 108              		.loc 1 24 5 is_stmt 0 discriminator 1
 109 0078 6FF05FFA 		j	.L4
 110              	.L6:
 111              	.LBB11:
 112              	.LBB9:
 113              	.LBB6:
  35:src/mem.cpp   **** 
 114              		.loc 1 35 17 is_stmt 1
  35:src/mem.cpp   **** 
 115              		.loc 1 35 39 is_stmt 0
 116 007c 83370501 		ld	a5,16(a0)
  35:src/mem.cpp   **** 
 117              		.loc 1 35 26
 118 0080 97060000 		sd	a5,.LANCHOR0,a3
 118      23B0F600 
 119 0088 6FF09FFB 		j	.L7
 120              	.L5:
 121              	.LBB5:
  43:src/mem.cpp   ****             leftover->prev = freeSpace->prev;
 122              		.loc 1 43 13 is_stmt 1
  43:src/mem.cpp   ****             leftover->prev = freeSpace->prev;
 123              		.loc 1 43 19 is_stmt 0
 124 008c B307E500 		add	a5,a0,a4
 125              	.LVL8:
  44:src/mem.cpp   ****             leftover->next = freeSpace->next;
 126              		.loc 1 44 13 is_stmt 1
  44:src/mem.cpp   ****             leftover->next = freeSpace->next;
 127              		.loc 1 44 41 is_stmt 0
 128 0090 83368500 		ld	a3,8(a0)
  44:src/mem.cpp   ****             leftover->next = freeSpace->next;
 129              		.loc 1 44 28
 130 0094 23B4D700 		sd	a3,8(a5)
  45:src/mem.cpp   ****             leftover->size = freeSpace->size - neededSize;
 131              		.loc 1 45 13 is_stmt 1
  45:src/mem.cpp   ****             leftover->size = freeSpace->size - neededSize;
 132              		.loc 1 45 41 is_stmt 0
 133 0098 83360501 		ld	a3,16(a0)
  45:src/mem.cpp   ****             leftover->size = freeSpace->size - neededSize;
 134              		.loc 1 45 28
 135 009c 23B8D700 		sd	a3,16(a5)
  46:src/mem.cpp   **** 
 136              		.loc 1 46 13 is_stmt 1
  46:src/mem.cpp   **** 
 137              		.loc 1 46 41 is_stmt 0
 138 00a0 83360500 		ld	a3,0(a0)
  46:src/mem.cpp   **** 
 139              		.loc 1 46 46
 140 00a4 B386E640 		sub	a3,a3,a4
  46:src/mem.cpp   **** 
 141              		.loc 1 46 28
 142 00a8 23B0D700 		sd	a3,0(a5)
  49:src/mem.cpp   ****                 freeSpace->prev->next = leftover;
 143              		.loc 1 49 13 is_stmt 1
GAS LISTING /tmp/ccpyAonF.s 			page 5


  49:src/mem.cpp   ****                 freeSpace->prev->next = leftover;
 144              		.loc 1 49 27 is_stmt 0
 145 00ac 83368500 		ld	a3,8(a0)
  49:src/mem.cpp   ****                 freeSpace->prev->next = leftover;
 146              		.loc 1 49 13
 147 00b0 638C0600 		beqz	a3,.L9
  50:src/mem.cpp   ****             else
 148              		.loc 1 50 17 is_stmt 1
  50:src/mem.cpp   ****             else
 149              		.loc 1 50 39 is_stmt 0
 150 00b4 23B8F600 		sd	a5,16(a3)
 151              	.L10:
  54:src/mem.cpp   ****                 freeSpace->next->prev = leftover;
 152              		.loc 1 54 13 is_stmt 1
  54:src/mem.cpp   ****                 freeSpace->next->prev = leftover;
 153              		.loc 1 54 27 is_stmt 0
 154 00b8 83360501 		ld	a3,16(a0)
  54:src/mem.cpp   ****                 freeSpace->next->prev = leftover;
 155              		.loc 1 54 13
 156 00bc E38A06F8 		beqz	a3,.L8
  55:src/mem.cpp   ****         }
 157              		.loc 1 55 17 is_stmt 1
  55:src/mem.cpp   ****         }
 158              		.loc 1 55 39 is_stmt 0
 159 00c0 23B4F600 		sd	a5,8(a3)
 160 00c4 6FF0DFF8 		j	.L8
 161              	.L9:
  52:src/mem.cpp   **** 
 162              		.loc 1 52 17 is_stmt 1
  52:src/mem.cpp   **** 
 163              		.loc 1 52 26 is_stmt 0
 164 00c8 97060000 		sd	a5,.LANCHOR0,a3
 164      23B0F600 
 165 00d0 6FF09FFE 		j	.L10
 166              	.LVL9:
 167              	.L19:
 168              	.LBE5:
 169              	.LBE6:
 170              	.LBE9:
  59:src/mem.cpp   ****         if (fullHead && (char*)freeSpace >= (char*)fullHead) {
 171              		.loc 1 59 20
 172 00d4 93860700 		mv	a3,a5
 173 00d8 6F008000 		j	.L11
 174              	.L20:
 175 00dc 93060000 		li	a3,0
 176              	.LVL10:
 177              	.L11:
  64:src/mem.cpp   ****                 fullSpace = fullSpace->next;
  65:src/mem.cpp   ****             }
  66:src/mem.cpp   ****         }
  67:src/mem.cpp   **** 
  68:src/mem.cpp   ****         //uvezivanje novog elementa
  69:src/mem.cpp   ****         auto* newFull = (FullSpace*)freeSpace;
 178              		.loc 1 69 9 is_stmt 1
  70:src/mem.cpp   ****         newFull->size = neededSize;
 179              		.loc 1 70 9
 180              		.loc 1 70 23 is_stmt 0
GAS LISTING /tmp/ccpyAonF.s 			page 6


 181 00e0 2330E500 		sd	a4,0(a0)
  71:src/mem.cpp   ****         newFull->prev = fullSpace;
 182              		.loc 1 71 9 is_stmt 1
 183              		.loc 1 71 23 is_stmt 0
 184 00e4 2334D500 		sd	a3,8(a0)
  72:src/mem.cpp   **** 
  73:src/mem.cpp   ****         if (fullSpace)
 185              		.loc 1 73 9 is_stmt 1
 186 00e8 63880602 		beqz	a3,.L13
  74:src/mem.cpp   ****             newFull->next = fullSpace->next;
 187              		.loc 1 74 13
 188              		.loc 1 74 40 is_stmt 0
 189 00ec 83B70601 		ld	a5,16(a3)
 190              		.loc 1 74 27
 191 00f0 2338F500 		sd	a5,16(a0)
 192              	.L14:
  75:src/mem.cpp   ****         else
  76:src/mem.cpp   ****             newFull->next = fullHead;
  77:src/mem.cpp   **** 
  78:src/mem.cpp   ****         if(newFull->next)
 193              		.loc 1 78 9 is_stmt 1
 194              		.loc 1 78 21 is_stmt 0
 195 00f4 83370501 		ld	a5,16(a0)
 196              		.loc 1 78 9
 197 00f8 63840700 		beqz	a5,.L15
  79:src/mem.cpp   ****             newFull->next->prev = newFull;
 198              		.loc 1 79 13 is_stmt 1
 199              		.loc 1 79 33 is_stmt 0
 200 00fc 23B4A700 		sd	a0,8(a5)
 201              	.L15:
  80:src/mem.cpp   **** 
  81:src/mem.cpp   ****         if (fullSpace)
 202              		.loc 1 81 9 is_stmt 1
 203 0100 63840602 		beqz	a3,.L16
  82:src/mem.cpp   ****             fullSpace->next = newFull;
 204              		.loc 1 82 13
 205              		.loc 1 82 29 is_stmt 0
 206 0104 23B8A600 		sd	a0,16(a3)
 207              	.L17:
  83:src/mem.cpp   ****         else
  84:src/mem.cpp   ****             fullHead = newFull;
  85:src/mem.cpp   **** 
  86:src/mem.cpp   ****         return (void*)(headerSize + (char*)newFull);
 208              		.loc 1 86 9 is_stmt 1
 209              		.loc 1 86 51 is_stmt 0
 210 0108 13058501 		addi	a0,a0,24
 211              	.LVL11:
 212              	.L1:
 213              	.LBE11:
  87:src/mem.cpp   ****     }
  88:src/mem.cpp   ****     return nullptr;
  89:src/mem.cpp   **** }
 214              		.loc 1 89 1
 215 010c 03348100 		ld	s0,8(sp)
 216              		.cfi_remember_state
 217              		.cfi_restore 8
 218              		.cfi_def_cfa 2, 16
GAS LISTING /tmp/ccpyAonF.s 			page 7


 219 0110 13010101 		addi	sp,sp,16
 220              		.cfi_def_cfa_offset 0
 221 0114 67800000 		jr	ra
 222              	.LVL12:
 223              	.L13:
 224              		.cfi_restore_state
 225              	.LBB12:
  76:src/mem.cpp   **** 
 226              		.loc 1 76 13 is_stmt 1
  76:src/mem.cpp   **** 
 227              		.loc 1 76 27 is_stmt 0
 228 0118 97070000 		ld	a5,.LANCHOR0+8
 228      83B70700 
 229 0120 2338F500 		sd	a5,16(a0)
 230 0124 6FF01FFD 		j	.L14
 231              	.L16:
  84:src/mem.cpp   **** 
 232              		.loc 1 84 13 is_stmt 1
  84:src/mem.cpp   **** 
 233              		.loc 1 84 22 is_stmt 0
 234 0128 97070000 		sd	a0,.LANCHOR0+8,a5
 234      23B0A700 
 235 0130 6FF09FFD 		j	.L17
 236              	.LVL13:
 237              	.L18:
 238              	.LBE12:
  19:src/mem.cpp   **** 
 239              		.loc 1 19 16
 240 0134 13050000 		li	a0,0
 241              	.LVL14:
 242 0138 6FF05FFD 		j	.L1
 243              		.cfi_endproc
 244              	.LFE4:
 246              		.align	2
 247              		.globl	_ZN3MEM4initEv
 249              	_ZN3MEM4initEv:
 250              	.LFB3:
   6:src/mem.cpp   ****     freeHead = (FreeSpace*)HEAP_START_ADDR;
 251              		.loc 1 6 17 is_stmt 1
 252              		.cfi_startproc
 253 013c 130101FF 		addi	sp,sp,-16
 254              		.cfi_def_cfa_offset 16
 255 0140 23341100 		sd	ra,8(sp)
 256 0144 23308100 		sd	s0,0(sp)
 257              		.cfi_offset 1, -8
 258              		.cfi_offset 8, -16
 259 0148 13040101 		addi	s0,sp,16
 260              		.cfi_def_cfa 8, 0
   7:src/mem.cpp   **** 
 261              		.loc 1 7 5
   7:src/mem.cpp   **** 
 262              		.loc 1 7 14 is_stmt 0
 263 014c 97070000 		la	a5,HEAP_START_ADDR
 263      83B70700 
 264 0154 83B70700 		ld	a5,0(a5)
 265 0158 97060000 		lla	a3,.LANCHOR0
 265      93860600 
GAS LISTING /tmp/ccpyAonF.s 			page 8


 266 0160 23B0F600 		sd	a5,0(a3)
   9:src/mem.cpp   ****     freeHead->prev = nullptr;
 267              		.loc 1 9 5 is_stmt 1
   9:src/mem.cpp   ****     freeHead->prev = nullptr;
 268              		.loc 1 9 44 is_stmt 0
 269 0164 17070000 		la	a4,HEAP_END_ADDR
 269      03370700 
 270 016c 03370700 		ld	a4,0(a4)
 271 0170 3307F740 		sub	a4,a4,a5
   9:src/mem.cpp   ****     freeHead->prev = nullptr;
 272              		.loc 1 9 20
 273 0174 23B0E700 		sd	a4,0(a5)
  10:src/mem.cpp   ****     freeHead->next = nullptr;
 274              		.loc 1 10 5 is_stmt 1
  10:src/mem.cpp   ****     freeHead->next = nullptr;
 275              		.loc 1 10 15 is_stmt 0
 276 0178 83B70600 		ld	a5,0(a3)
  10:src/mem.cpp   ****     freeHead->next = nullptr;
 277              		.loc 1 10 20
 278 017c 23B40700 		sd	zero,8(a5)
  11:src/mem.cpp   **** 
 279              		.loc 1 11 5 is_stmt 1
  11:src/mem.cpp   **** 
 280              		.loc 1 11 20 is_stmt 0
 281 0180 23B80700 		sd	zero,16(a5)
  13:src/mem.cpp   **** }
 282              		.loc 1 13 5 is_stmt 1
  13:src/mem.cpp   **** }
 283              		.loc 1 13 18 is_stmt 0
 284 0184 13051000 		li	a0,1
 285 0188 97000000 		call	_ZN3MEM8memAllocEm
 285      E7800000 
 286              	.LVL15:
  14:src/mem.cpp   **** 
 287              		.loc 1 14 1
 288 0190 83308100 		ld	ra,8(sp)
 289              		.cfi_restore 1
 290 0194 03340100 		ld	s0,0(sp)
 291              		.cfi_restore 8
 292              		.cfi_def_cfa 2, 16
 293 0198 13010101 		addi	sp,sp,16
 294              		.cfi_def_cfa_offset 0
 295 019c 67800000 		jr	ra
 296              		.cfi_endproc
 297              	.LFE3:
 299              		.align	2
 300              		.globl	_ZN3MEM9tryToJoinEPNS_9FreeSpaceES1_
 302              	_ZN3MEM9tryToJoinEPNS_9FreeSpaceES1_:
 303              	.LFB6:
  90:src/mem.cpp   **** 
  91:src/mem.cpp   **** int MEM::memFree(void *address) {
  92:src/mem.cpp   **** 
  93:src/mem.cpp   ****     if (address == nullptr)
  94:src/mem.cpp   ****         return -1;
  95:src/mem.cpp   **** 
  96:src/mem.cpp   ****     //dolazak do nase adrese koja mora da bude pocetak segmenta
  97:src/mem.cpp   ****     address = (void*)((char*)address - headerSize);
GAS LISTING /tmp/ccpyAonF.s 			page 9


  98:src/mem.cpp   ****     FullSpace* fullSpace = fullHead;
  99:src/mem.cpp   ****     auto* addressSegment = (FullSpace*)address;
 100:src/mem.cpp   ****     bool isStartOfSegment = false;
 101:src/mem.cpp   **** 
 102:src/mem.cpp   ****     while(fullSpace && addressSegment>=fullSpace){
 103:src/mem.cpp   ****         if(fullSpace == addressSegment) {
 104:src/mem.cpp   ****             isStartOfSegment = true;
 105:src/mem.cpp   ****             break;
 106:src/mem.cpp   ****         }
 107:src/mem.cpp   ****         fullSpace = fullSpace->next;
 108:src/mem.cpp   ****     }
 109:src/mem.cpp   **** 
 110:src/mem.cpp   ****     if (!isStartOfSegment)
 111:src/mem.cpp   ****         return -1;
 112:src/mem.cpp   ****     else
 113:src/mem.cpp   ****         addressSegment = fullSpace;
 114:src/mem.cpp   **** 
 115:src/mem.cpp   ****     //odvezivanje tog segmenta
 116:src/mem.cpp   ****     if (addressSegment->prev)
 117:src/mem.cpp   ****         addressSegment->prev->next = addressSegment->next;
 118:src/mem.cpp   ****     else
 119:src/mem.cpp   ****         fullHead = addressSegment->next;
 120:src/mem.cpp   **** 
 121:src/mem.cpp   ****     if (addressSegment->next)
 122:src/mem.cpp   ****         addressSegment->next->prev = addressSegment->prev;
 123:src/mem.cpp   **** 
 124:src/mem.cpp   ****     //trazenje gde da se smesti u slobodnim segmentima
 125:src/mem.cpp   ****     FreeSpace* freeSpace = freeHead;
 126:src/mem.cpp   ****     while(freeSpace->next != nullptr && (char*)address > (char*)(freeSpace->next)){
 127:src/mem.cpp   ****         freeSpace = freeSpace->next;
 128:src/mem.cpp   ****     }
 129:src/mem.cpp   **** 
 130:src/mem.cpp   ****     //try toJoin sa onim pre njega
 131:src/mem.cpp   ****     if((char*)freeSpace + freeSpace->size == address){
 132:src/mem.cpp   ****         freeSpace->size += addressSegment->size;
 133:src/mem.cpp   ****         if (freeSpace->next && (char*)((char*)freeSpace + freeSpace->size) == (char*)(freeSpace->ne
 134:src/mem.cpp   **** 
 135:src/mem.cpp   ****             freeSpace->size += freeSpace->next->size;
 136:src/mem.cpp   ****             freeSpace->next = freeSpace->next->next;
 137:src/mem.cpp   **** 
 138:src/mem.cpp   ****             if (freeSpace->next)
 139:src/mem.cpp   ****                 freeSpace->next->prev = freeSpace;
 140:src/mem.cpp   ****         }
 141:src/mem.cpp   ****         return 0;
 142:src/mem.cpp   **** 
 143:src/mem.cpp   ****     } else { //tryToJoin sa onim posle njega
 144:src/mem.cpp   **** 
 145:src/mem.cpp   ****         FreeSpace *nextSegment = freeSpace->next;
 146:src/mem.cpp   **** 
 147:src/mem.cpp   ****         auto *newSegment = (FreeSpace *) address;
 148:src/mem.cpp   ****         newSegment->size = addressSegment->size;
 149:src/mem.cpp   ****         if(nextSegment && tryToJoin(newSegment, nextSegment))
 150:src/mem.cpp   ****             return 0;
 151:src/mem.cpp   ****         else{
 152:src/mem.cpp   ****             //uvezivanje sa ostatkom
 153:src/mem.cpp   ****             newSegment->prev = freeSpace;
 154:src/mem.cpp   ****             newSegment->next = freeSpace->next;
GAS LISTING /tmp/ccpyAonF.s 			page 10


 155:src/mem.cpp   **** 
 156:src/mem.cpp   ****             if (newSegment->next)
 157:src/mem.cpp   ****                 newSegment->next->prev = newSegment;
 158:src/mem.cpp   **** 
 159:src/mem.cpp   ****             freeSpace->next = newSegment;
 160:src/mem.cpp   **** 
 161:src/mem.cpp   ****             return 0;
 162:src/mem.cpp   ****         }
 163:src/mem.cpp   ****     }
 164:src/mem.cpp   **** }
 165:src/mem.cpp   **** 
 166:src/mem.cpp   **** 
 167:src/mem.cpp   **** //ovo se moglo bolje implementirati
 168:src/mem.cpp   **** int MEM::tryToJoin(FreeSpace *firstSegment, FreeSpace* secondSegment){
 304              		.loc 1 168 70 is_stmt 1
 305              		.cfi_startproc
 306              	.LVL16:
 307 01a0 130101FF 		addi	sp,sp,-16
 308              		.cfi_def_cfa_offset 16
 309 01a4 23348100 		sd	s0,8(sp)
 310              		.cfi_offset 8, -8
 311 01a8 13040101 		addi	s0,sp,16
 312              		.cfi_def_cfa 8, 0
 169:src/mem.cpp   ****     if((char*)firstSegment + firstSegment->size == (char*)secondSegment){
 313              		.loc 1 169 5
 314              		.loc 1 169 44 is_stmt 0
 315 01ac 83370500 		ld	a5,0(a0)
 316              		.loc 1 169 28
 317 01b0 3307F500 		add	a4,a0,a5
 318              		.loc 1 169 5
 319 01b4 630AB700 		beq	a4,a1,.L32
 170:src/mem.cpp   **** 
 171:src/mem.cpp   ****         firstSegment->size += secondSegment->size;
 172:src/mem.cpp   ****         firstSegment->prev = secondSegment->prev;
 173:src/mem.cpp   ****         firstSegment->next = secondSegment->next;
 174:src/mem.cpp   **** 
 175:src/mem.cpp   ****         if (secondSegment->prev)
 176:src/mem.cpp   ****             secondSegment->prev->next = firstSegment;
 177:src/mem.cpp   ****         else
 178:src/mem.cpp   ****             freeHead = firstSegment;
 179:src/mem.cpp   **** 
 180:src/mem.cpp   ****         if (secondSegment->next)
 181:src/mem.cpp   ****             secondSegment->next->prev = firstSegment;
 182:src/mem.cpp   **** 
 183:src/mem.cpp   ****         return 1;
 184:src/mem.cpp   ****     }
 185:src/mem.cpp   ****     return 0;
 320              		.loc 1 185 12
 321 01b8 13050000 		li	a0,0
 322              	.LVL17:
 323              	.L26:
 186:src/mem.cpp   **** }
 324              		.loc 1 186 1
 325 01bc 03348100 		ld	s0,8(sp)
 326              		.cfi_remember_state
 327              		.cfi_restore 8
 328              		.cfi_def_cfa 2, 16
GAS LISTING /tmp/ccpyAonF.s 			page 11


 329 01c0 13010101 		addi	sp,sp,16
 330              		.cfi_def_cfa_offset 0
 331 01c4 67800000 		jr	ra
 332              	.LVL18:
 333              	.L32:
 334              		.cfi_restore_state
 171:src/mem.cpp   ****         firstSegment->prev = secondSegment->prev;
 335              		.loc 1 171 9 is_stmt 1
 171:src/mem.cpp   ****         firstSegment->prev = secondSegment->prev;
 336              		.loc 1 171 46 is_stmt 0
 337 01c8 03B70500 		ld	a4,0(a1)
 171:src/mem.cpp   ****         firstSegment->prev = secondSegment->prev;
 338              		.loc 1 171 28
 339 01cc B387E700 		add	a5,a5,a4
 340 01d0 2330F500 		sd	a5,0(a0)
 172:src/mem.cpp   ****         firstSegment->next = secondSegment->next;
 341              		.loc 1 172 9 is_stmt 1
 172:src/mem.cpp   ****         firstSegment->next = secondSegment->next;
 342              		.loc 1 172 45 is_stmt 0
 343 01d4 83B78500 		ld	a5,8(a1)
 172:src/mem.cpp   ****         firstSegment->next = secondSegment->next;
 344              		.loc 1 172 28
 345 01d8 2334F500 		sd	a5,8(a0)
 173:src/mem.cpp   **** 
 346              		.loc 1 173 9 is_stmt 1
 173:src/mem.cpp   **** 
 347              		.loc 1 173 45 is_stmt 0
 348 01dc 83B70501 		ld	a5,16(a1)
 173:src/mem.cpp   **** 
 349              		.loc 1 173 28
 350 01e0 2338F500 		sd	a5,16(a0)
 175:src/mem.cpp   ****             secondSegment->prev->next = firstSegment;
 351              		.loc 1 175 9 is_stmt 1
 175:src/mem.cpp   ****             secondSegment->prev->next = firstSegment;
 352              		.loc 1 175 28 is_stmt 0
 353 01e4 83B78500 		ld	a5,8(a1)
 175:src/mem.cpp   ****             secondSegment->prev->next = firstSegment;
 354              		.loc 1 175 9
 355 01e8 638E0700 		beqz	a5,.L27
 176:src/mem.cpp   ****         else
 356              		.loc 1 176 13 is_stmt 1
 176:src/mem.cpp   ****         else
 357              		.loc 1 176 39 is_stmt 0
 358 01ec 23B8A700 		sd	a0,16(a5)
 359              	.L28:
 180:src/mem.cpp   ****             secondSegment->next->prev = firstSegment;
 360              		.loc 1 180 9 is_stmt 1
 180:src/mem.cpp   ****             secondSegment->next->prev = firstSegment;
 361              		.loc 1 180 28 is_stmt 0
 362 01f0 83B70501 		ld	a5,16(a1)
 180:src/mem.cpp   ****             secondSegment->next->prev = firstSegment;
 363              		.loc 1 180 9
 364 01f4 63840700 		beqz	a5,.L29
 181:src/mem.cpp   **** 
 365              		.loc 1 181 13 is_stmt 1
 181:src/mem.cpp   **** 
 366              		.loc 1 181 39 is_stmt 0
GAS LISTING /tmp/ccpyAonF.s 			page 12


 367 01f8 23B4A700 		sd	a0,8(a5)
 368              	.L29:
 183:src/mem.cpp   ****     }
 369              		.loc 1 183 9 is_stmt 1
 183:src/mem.cpp   ****     }
 370              		.loc 1 183 16 is_stmt 0
 371 01fc 13051000 		li	a0,1
 372              	.LVL19:
 373 0200 6FF0DFFB 		j	.L26
 374              	.LVL20:
 375              	.L27:
 178:src/mem.cpp   **** 
 376              		.loc 1 178 13 is_stmt 1
 178:src/mem.cpp   **** 
 377              		.loc 1 178 22 is_stmt 0
 378 0204 97070000 		sd	a0,.LANCHOR0,a5
 378      23B0A700 
 379 020c 6FF05FFE 		j	.L28
 380              		.cfi_endproc
 381              	.LFE6:
 383              		.align	2
 384              		.globl	_ZN3MEM7memFreeEPv
 386              	_ZN3MEM7memFreeEPv:
 387              	.LFB5:
  91:src/mem.cpp   **** 
 388              		.loc 1 91 33 is_stmt 1
 389              		.cfi_startproc
 390              	.LVL21:
  93:src/mem.cpp   ****         return -1;
 391              		.loc 1 93 5
 392 0210 63020514 		beqz	a0,.L46
  91:src/mem.cpp   **** 
 393              		.loc 1 91 33 is_stmt 0
 394 0214 130101FD 		addi	sp,sp,-48
 395              		.cfi_def_cfa_offset 48
 396 0218 23341102 		sd	ra,40(sp)
 397 021c 23308102 		sd	s0,32(sp)
 398 0220 233C9100 		sd	s1,24(sp)
 399 0224 23382101 		sd	s2,16(sp)
 400 0228 23343101 		sd	s3,8(sp)
 401              		.cfi_offset 1, -8
 402              		.cfi_offset 8, -16
 403              		.cfi_offset 9, -24
 404              		.cfi_offset 18, -32
 405              		.cfi_offset 19, -40
 406 022c 13040103 		addi	s0,sp,48
 407              		.cfi_def_cfa 8, 0
 408 0230 93090500 		mv	s3,a0
  97:src/mem.cpp   ****     FullSpace* fullSpace = fullHead;
 409              		.loc 1 97 5 is_stmt 1
  97:src/mem.cpp   ****     FullSpace* fullSpace = fullHead;
 410              		.loc 1 97 13 is_stmt 0
 411 0234 930485FE 		addi	s1,a0,-24
 412              	.LVL22:
  98:src/mem.cpp   ****     auto* addressSegment = (FullSpace*)address;
 413              		.loc 1 98 5 is_stmt 1
  98:src/mem.cpp   ****     auto* addressSegment = (FullSpace*)address;
GAS LISTING /tmp/ccpyAonF.s 			page 13


 414              		.loc 1 98 16 is_stmt 0
 415 0238 97070000 		ld	a5,.LANCHOR0+8
 415      83B70700 
 416              	.LVL23:
  99:src/mem.cpp   ****     bool isStartOfSegment = false;
 417              		.loc 1 99 5 is_stmt 1
 100:src/mem.cpp   **** 
 418              		.loc 1 100 5
 419 0240 6F008000 		j	.L36
 420              	.L56:
 107:src/mem.cpp   ****     }
 421              		.loc 1 107 9
 107:src/mem.cpp   ****     }
 422              		.loc 1 107 19 is_stmt 0
 423 0244 83B70701 		ld	a5,16(a5)
 424              	.LVL24:
 425              	.L36:
 102:src/mem.cpp   ****         if(fullSpace == addressSegment) {
 426              		.loc 1 102 5 is_stmt 1
 102:src/mem.cpp   ****         if(fullSpace == addressSegment) {
 427              		.loc 1 102 21
 428 0248 638A0700 		beqz	a5,.L47
 102:src/mem.cpp   ****         if(fullSpace == addressSegment) {
 429              		.loc 1 102 21 is_stmt 0 discriminator 1
 430 024c 63E8F40A 		bgtu	a5,s1,.L48
 103:src/mem.cpp   ****             isStartOfSegment = true;
 431              		.loc 1 103 9 is_stmt 1
 432 0250 E39A97FE 		bne	a5,s1,.L56
 104:src/mem.cpp   ****             break;
 433              		.loc 1 104 30 is_stmt 0
 434 0254 13071000 		li	a4,1
 435 0258 6F008000 		j	.L35
 436              	.L47:
 100:src/mem.cpp   **** 
 437              		.loc 1 100 10
 438 025c 13070000 		li	a4,0
 439              	.L35:
 440              	.LVL25:
 110:src/mem.cpp   ****         return -1;
 441              		.loc 1 110 5 is_stmt 1
 442 0260 630E070E 		beqz	a4,.L50
 113:src/mem.cpp   **** 
 443              		.loc 1 113 9
 444              	.LVL26:
 116:src/mem.cpp   ****         addressSegment->prev->next = addressSegment->next;
 445              		.loc 1 116 5
 116:src/mem.cpp   ****         addressSegment->prev->next = addressSegment->next;
 446              		.loc 1 116 25 is_stmt 0
 447 0264 03B78700 		ld	a4,8(a5)
 448              	.LVL27:
 116:src/mem.cpp   ****         addressSegment->prev->next = addressSegment->next;
 449              		.loc 1 116 5
 450 0268 630E0708 		beqz	a4,.L37
 117:src/mem.cpp   ****     else
 451              		.loc 1 117 9 is_stmt 1
 117:src/mem.cpp   ****     else
 452              		.loc 1 117 54 is_stmt 0
GAS LISTING /tmp/ccpyAonF.s 			page 14


 453 026c 83B60701 		ld	a3,16(a5)
 117:src/mem.cpp   ****     else
 454              		.loc 1 117 36
 455 0270 2338D700 		sd	a3,16(a4)
 456              	.L38:
 121:src/mem.cpp   ****         addressSegment->next->prev = addressSegment->prev;
 457              		.loc 1 121 5 is_stmt 1
 121:src/mem.cpp   ****         addressSegment->next->prev = addressSegment->prev;
 458              		.loc 1 121 25 is_stmt 0
 459 0274 03B70701 		ld	a4,16(a5)
 121:src/mem.cpp   ****         addressSegment->next->prev = addressSegment->prev;
 460              		.loc 1 121 5
 461 0278 63060700 		beqz	a4,.L39
 122:src/mem.cpp   **** 
 462              		.loc 1 122 9 is_stmt 1
 122:src/mem.cpp   **** 
 463              		.loc 1 122 54 is_stmt 0
 464 027c 83B68700 		ld	a3,8(a5)
 122:src/mem.cpp   **** 
 465              		.loc 1 122 36
 466 0280 2334D700 		sd	a3,8(a4)
 467              	.L39:
 125:src/mem.cpp   ****     while(freeSpace->next != nullptr && (char*)address > (char*)(freeSpace->next)){
 468              		.loc 1 125 5 is_stmt 1
 125:src/mem.cpp   ****     while(freeSpace->next != nullptr && (char*)address > (char*)(freeSpace->next)){
 469              		.loc 1 125 16 is_stmt 0
 470 0284 97050000 		ld	a1,.LANCHOR0
 470      83B50500 
 471              	.LVL28:
 472              	.L41:
 126:src/mem.cpp   ****         freeSpace = freeSpace->next;
 473              		.loc 1 126 5 is_stmt 1
 126:src/mem.cpp   ****         freeSpace = freeSpace->next;
 474              		.loc 1 126 38
 475 028c 13890500 		mv	s2,a1
 126:src/mem.cpp   ****         freeSpace = freeSpace->next;
 476              		.loc 1 126 22 is_stmt 0
 477 0290 83B50501 		ld	a1,16(a1)
 478              	.LVL29:
 126:src/mem.cpp   ****         freeSpace = freeSpace->next;
 479              		.loc 1 126 38
 480 0294 63840500 		beqz	a1,.L40
 126:src/mem.cpp   ****         freeSpace = freeSpace->next;
 481              		.loc 1 126 38 discriminator 1
 482 0298 E3EA95FE 		bltu	a1,s1,.L41
 483              	.L40:
 131:src/mem.cpp   ****         freeSpace->size += addressSegment->size;
 484              		.loc 1 131 5 is_stmt 1
 485              	.LBB13:
 131:src/mem.cpp   ****         freeSpace->size += addressSegment->size;
 486              		.loc 1 131 38 is_stmt 0
 487 029c 03370900 		ld	a4,0(s2)
 131:src/mem.cpp   ****         freeSpace->size += addressSegment->size;
 488              		.loc 1 131 25
 489 02a0 B306E900 		add	a3,s2,a4
 131:src/mem.cpp   ****         freeSpace->size += addressSegment->size;
 490              		.loc 1 131 5
GAS LISTING /tmp/ccpyAonF.s 			page 15


 491 02a4 63889606 		beq	a3,s1,.L57
 492              	.LBB14:
 145:src/mem.cpp   **** 
 493              		.loc 1 145 9 is_stmt 1
 494              	.LVL30:
 147:src/mem.cpp   ****         newSegment->size = addressSegment->size;
 495              		.loc 1 147 9
 148:src/mem.cpp   ****         if(nextSegment && tryToJoin(newSegment, nextSegment))
 496              		.loc 1 148 9
 148:src/mem.cpp   ****         if(nextSegment && tryToJoin(newSegment, nextSegment))
 497              		.loc 1 148 44 is_stmt 0
 498 02a8 83B70700 		ld	a5,0(a5)
 499              	.LVL31:
 148:src/mem.cpp   ****         if(nextSegment && tryToJoin(newSegment, nextSegment))
 500              		.loc 1 148 26
 501 02ac 23B4F9FE 		sd	a5,-24(s3)
 149:src/mem.cpp   ****             return 0;
 502              		.loc 1 149 9 is_stmt 1
 149:src/mem.cpp   ****             return 0;
 503              		.loc 1 149 24 is_stmt 0
 504 02b0 638A0500 		beqz	a1,.L44
 149:src/mem.cpp   ****             return 0;
 505              		.loc 1 149 36 discriminator 1
 506 02b4 13850400 		mv	a0,s1
 507 02b8 97000000 		call	_ZN3MEM9tryToJoinEPNS_9FreeSpaceES1_
 507      E7800000 
 508              	.LVL32:
 149:src/mem.cpp   ****             return 0;
 509              		.loc 1 149 24 discriminator 1
 510 02c0 6312050A 		bnez	a0,.L51
 511              	.L44:
 153:src/mem.cpp   ****             newSegment->next = freeSpace->next;
 512              		.loc 1 153 13 is_stmt 1 discriminator 4
 153:src/mem.cpp   ****             newSegment->next = freeSpace->next;
 513              		.loc 1 153 30 is_stmt 0 discriminator 4
 514 02c4 23B829FF 		sd	s2,-16(s3)
 154:src/mem.cpp   **** 
 515              		.loc 1 154 13 is_stmt 1 discriminator 4
 154:src/mem.cpp   **** 
 516              		.loc 1 154 43 is_stmt 0 discriminator 4
 517 02c8 83370901 		ld	a5,16(s2)
 154:src/mem.cpp   **** 
 518              		.loc 1 154 30 discriminator 4
 519 02cc 23BCF9FE 		sd	a5,-8(s3)
 156:src/mem.cpp   ****                 newSegment->next->prev = newSegment;
 520              		.loc 1 156 13 is_stmt 1 discriminator 4
 521 02d0 63840700 		beqz	a5,.L45
 157:src/mem.cpp   **** 
 522              		.loc 1 157 17
 157:src/mem.cpp   **** 
 523              		.loc 1 157 40 is_stmt 0
 524 02d4 23B49700 		sd	s1,8(a5)
 525              	.L45:
 159:src/mem.cpp   **** 
 526              		.loc 1 159 13 is_stmt 1
 159:src/mem.cpp   **** 
 527              		.loc 1 159 29 is_stmt 0
GAS LISTING /tmp/ccpyAonF.s 			page 16


 528 02d8 23389900 		sd	s1,16(s2)
 161:src/mem.cpp   ****         }
 529              		.loc 1 161 13 is_stmt 1
 161:src/mem.cpp   ****         }
 530              		.loc 1 161 20 is_stmt 0
 531 02dc 13050000 		li	a0,0
 532              	.LVL33:
 533              	.L34:
 534              	.LBE14:
 535              	.LBE13:
 164:src/mem.cpp   **** 
 536              		.loc 1 164 1
 537 02e0 83308102 		ld	ra,40(sp)
 538              		.cfi_remember_state
 539              		.cfi_restore 1
 540 02e4 03340102 		ld	s0,32(sp)
 541              		.cfi_restore 8
 542              		.cfi_def_cfa 2, 48
 543 02e8 83348101 		ld	s1,24(sp)
 544              		.cfi_restore 9
 545              	.LVL34:
 546 02ec 03390101 		ld	s2,16(sp)
 547              		.cfi_restore 18
 548 02f0 83398100 		ld	s3,8(sp)
 549              		.cfi_restore 19
 550              	.LVL35:
 551 02f4 13010103 		addi	sp,sp,48
 552              		.cfi_def_cfa_offset 0
 553 02f8 67800000 		jr	ra
 554              	.LVL36:
 555              	.L48:
 556              		.cfi_restore_state
 100:src/mem.cpp   **** 
 557              		.loc 1 100 10
 558 02fc 13070000 		li	a4,0
 559 0300 6FF01FF6 		j	.L35
 560              	.LVL37:
 561              	.L37:
 119:src/mem.cpp   **** 
 562              		.loc 1 119 9 is_stmt 1
 119:src/mem.cpp   **** 
 563              		.loc 1 119 36 is_stmt 0
 564 0304 03B70701 		ld	a4,16(a5)
 119:src/mem.cpp   **** 
 565              		.loc 1 119 18
 566 0308 97060000 		sd	a4,.LANCHOR0+8,a3
 566      23B0E600 
 567 0310 6FF05FF6 		j	.L38
 568              	.LVL38:
 569              	.L57:
 570              	.LBB16:
 132:src/mem.cpp   ****         if (freeSpace->next && (char*)((char*)freeSpace + freeSpace->size) == (char*)(freeSpace->ne
 571              		.loc 1 132 9 is_stmt 1
 132:src/mem.cpp   ****         if (freeSpace->next && (char*)((char*)freeSpace + freeSpace->size) == (char*)(freeSpace->ne
 572              		.loc 1 132 44 is_stmt 0
 573 0314 83B70700 		ld	a5,0(a5)
 574              	.LVL39:
GAS LISTING /tmp/ccpyAonF.s 			page 17


 132:src/mem.cpp   ****         if (freeSpace->next && (char*)((char*)freeSpace + freeSpace->size) == (char*)(freeSpace->ne
 575              		.loc 1 132 25
 576 0318 3307F700 		add	a4,a4,a5
 577 031c 2330E900 		sd	a4,0(s2)
 133:src/mem.cpp   **** 
 578              		.loc 1 133 9 is_stmt 1
 579 0320 63860500 		beqz	a1,.L43
 133:src/mem.cpp   **** 
 580              		.loc 1 133 57 is_stmt 0 discriminator 1
 581 0324 B307E900 		add	a5,s2,a4
 133:src/mem.cpp   **** 
 582              		.loc 1 133 29 discriminator 1
 583 0328 6386F500 		beq	a1,a5,.L58
 584              	.L43:
 141:src/mem.cpp   **** 
 585              		.loc 1 141 9 is_stmt 1
 141:src/mem.cpp   **** 
 586              		.loc 1 141 16 is_stmt 0
 587 032c 13050000 		li	a0,0
 588 0330 6FF01FFB 		j	.L34
 589              	.L58:
 135:src/mem.cpp   ****             freeSpace->next = freeSpace->next->next;
 590              		.loc 1 135 13 is_stmt 1
 135:src/mem.cpp   ****             freeSpace->next = freeSpace->next->next;
 591              		.loc 1 135 49 is_stmt 0
 592 0334 83B70500 		ld	a5,0(a1)
 135:src/mem.cpp   ****             freeSpace->next = freeSpace->next->next;
 593              		.loc 1 135 29
 594 0338 3307F700 		add	a4,a4,a5
 595 033c 2330E900 		sd	a4,0(s2)
 136:src/mem.cpp   **** 
 596              		.loc 1 136 13 is_stmt 1
 136:src/mem.cpp   **** 
 597              		.loc 1 136 48 is_stmt 0
 598 0340 83B70501 		ld	a5,16(a1)
 136:src/mem.cpp   **** 
 599              		.loc 1 136 29
 600 0344 2338F900 		sd	a5,16(s2)
 138:src/mem.cpp   ****                 freeSpace->next->prev = freeSpace;
 601              		.loc 1 138 13 is_stmt 1
 602 0348 E38207FE 		beqz	a5,.L43
 139:src/mem.cpp   ****         }
 603              		.loc 1 139 17
 139:src/mem.cpp   ****         }
 604              		.loc 1 139 39 is_stmt 0
 605 034c 23B42701 		sd	s2,8(a5)
 606 0350 6FF0DFFD 		j	.L43
 607              	.LVL40:
 608              	.L46:
 609              		.cfi_def_cfa_register 2
 610              		.cfi_restore 1
 611              		.cfi_restore 8
 612              		.cfi_restore 9
 613              		.cfi_restore 18
 614              		.cfi_restore 19
 615              	.LBE16:
  94:src/mem.cpp   **** 
GAS LISTING /tmp/ccpyAonF.s 			page 18


 616              		.loc 1 94 17
 617 0354 1305F0FF 		li	a0,-1
 618              	.LVL41:
 164:src/mem.cpp   **** 
 619              		.loc 1 164 1
 620 0358 67800000 		ret
 621              	.LVL42:
 622              	.L50:
 623              		.cfi_def_cfa_register 8
 624              		.cfi_offset 1, -8
 625              		.cfi_offset 8, -16
 626              		.cfi_offset 9, -24
 627              		.cfi_offset 18, -32
 628              		.cfi_offset 19, -40
 111:src/mem.cpp   ****     else
 629              		.loc 1 111 17
 630 035c 1305F0FF 		li	a0,-1
 631 0360 6FF01FF8 		j	.L34
 632              	.LVL43:
 633              	.L51:
 634              	.LBB17:
 635              	.LBB15:
 150:src/mem.cpp   ****         else{
 636              		.loc 1 150 20
 637 0364 13050000 		li	a0,0
 638 0368 6FF09FF7 		j	.L34
 639              	.LBE15:
 640              	.LBE17:
 641              		.cfi_endproc
 642              	.LFE5:
 644              		.globl	_ZN3MEM8freeHeadE
 645              		.globl	_ZN3MEM8fullHeadE
 646              		.bss
 647              		.align	3
 648              		.set	.LANCHOR0,. + 0
 651              	_ZN3MEM8freeHeadE:
 652 0000 00000000 		.zero	8
 652      00000000 
 655              	_ZN3MEM8fullHeadE:
 656 0008 00000000 		.zero	8
 656      00000000 
 657              		.text
 658              	.Letext0:
 659              		.file 2 "src/../h/../lib/hw.h"
 660              		.file 3 "src/../h/mem.h"
GAS LISTING /tmp/ccpyAonF.s 			page 19

