GAS LISTING /tmp/ccA6oN5C.s 			page 1


   1              		.file	"syscall_c.cpp"
   2              		.option pic
   3              		.option norelax
   4              		.text
   5              	.Ltext0:
   6              		.align	2
   7              		.globl	_Z9mem_allocm
   9              	_Z9mem_allocm:
  10              	.LFB16:
  11              		.file 1 "src/syscall_c.cpp"
   1:src/syscall_c.cpp **** #include "../h/syscall_c.h"
   2:src/syscall_c.cpp **** #include "../h/riscv.h"
   3:src/syscall_c.cpp **** 
   4:src/syscall_c.cpp **** void *mem_alloc(size_t size_mem) {
  12              		.loc 1 4 34
  13              		.cfi_startproc
  14              	.LVL0:
  15 0000 130101FF 		addi	sp,sp,-16
  16              		.cfi_def_cfa_offset 16
  17 0004 23348100 		sd	s0,8(sp)
  18              		.cfi_offset 8, -8
  19 0008 13040101 		addi	s0,sp,16
  20              		.cfi_def_cfa 8, 0
   5:src/syscall_c.cpp ****     uint64 b;
  21              		.loc 1 5 5
   6:src/syscall_c.cpp **** 
   7:src/syscall_c.cpp ****     size_t mod = size_mem % MEM_BLOCK_SIZE;
  22              		.loc 1 7 5
  23              		.loc 1 7 12 is_stmt 0
  24 000c 9377F503 		andi	a5,a0,63
  25              	.LVL1:
   8:src/syscall_c.cpp ****     size_mem = size_mem / MEM_BLOCK_SIZE + (mod ? 1 : 0);
  26              		.loc 1 8 5 is_stmt 1
  27              		.loc 1 8 25 is_stmt 0
  28 0010 13556500 		srli	a0,a0,6
  29              	.LVL2:
  30              		.loc 1 8 49
  31 0014 63840700 		beqz	a5,.L2
  32 0018 93071000 		li	a5,1
  33              	.LVL3:
  34              	.L2:
  35              		.loc 1 8 14 discriminator 4
  36 001c 3305F500 		add	a0,a0,a5
  37              	.LVL4:
   9:src/syscall_c.cpp ****     size_t opCode = 0x01;
  38              		.loc 1 9 5 is_stmt 1 discriminator 4
  10:src/syscall_c.cpp **** 
  11:src/syscall_c.cpp ****     __asm__ volatile ("mv a1, %[size_mem]":: [size_mem] "r"(size_mem));
  39              		.loc 1 11 5 discriminator 4
  40              		.loc 1 11 71 is_stmt 0 discriminator 4
  41              	#APP
  42              	# 11 "src/syscall_c.cpp" 1
  12              	    __asm__ volatile ("mv a0, %0":: "r"(opCode));
  43              		mv a1, a0
  44              	# 0 "" 2
  45              		.loc 1 12 5 is_stmt 1 discriminator 4
  46              		.loc 1 12 49 is_stmt 0 discriminator 4
GAS LISTING /tmp/ccA6oN5C.s 			page 2


  47              	#NO_APP
  48 0024 93071000 		li	a5,1
  49              	#APP
  50              	# 12 "src/syscall_c.cpp" 1
  13              	
  14:src/syscall_c.cpp ****     __asm__ volatile("ecall");
  51              		mv a0, a5
  52              	# 0 "" 2
  53              		.loc 1 14 5 is_stmt 1 discriminator 4
  54              		.loc 1 14 30 is_stmt 0 discriminator 4
  55              	# 14 "src/syscall_c.cpp" 1
  15              	
  16:src/syscall_c.cpp ****     __asm__ volatile ("mv a0, %[b]" : [b] "=r"(b));
  56              		ecall
  57              	# 0 "" 2
  58              		.loc 1 16 5 is_stmt 1 discriminator 4
  59              		.loc 1 16 51 is_stmt 0 discriminator 4
  60              	# 16 "src/syscall_c.cpp" 1
  17              	    return (void*)b;
  61              		mv a0, a0
  62              	# 0 "" 2
  63              	.LVL5:
  64              		.loc 1 17 5 is_stmt 1 discriminator 4
  18:src/syscall_c.cpp **** }
  65              		.loc 1 18 1 is_stmt 0 discriminator 4
  66              	#NO_APP
  67 0034 03348100 		ld	s0,8(sp)
  68              		.cfi_restore 8
  69              		.cfi_def_cfa 2, 16
  70 0038 13010101 		addi	sp,sp,16
  71              		.cfi_def_cfa_offset 0
  72 003c 67800000 		jr	ra
  73              		.cfi_endproc
  74              	.LFE16:
  76              		.align	2
  77              		.globl	_Z8mem_freePv
  79              	_Z8mem_freePv:
  80              	.LFB17:
  19:src/syscall_c.cpp **** 
  20:src/syscall_c.cpp **** int mem_free(void *ptr) {
  81              		.loc 1 20 25 is_stmt 1
  82              		.cfi_startproc
  83              	.LVL6:
  84 0040 130101FF 		addi	sp,sp,-16
  85              		.cfi_def_cfa_offset 16
  86 0044 23348100 		sd	s0,8(sp)
  87              		.cfi_offset 8, -8
  88 0048 13040101 		addi	s0,sp,16
  89              		.cfi_def_cfa 8, 0
  21:src/syscall_c.cpp ****     int b;
  90              		.loc 1 21 5
  22:src/syscall_c.cpp **** 
  23:src/syscall_c.cpp ****     size_t opCode = 0x02;
  91              		.loc 1 23 5
  92              	.LVL7:
  24:src/syscall_c.cpp ****     __asm__ volatile("mv a1, %0":: "r"(ptr));
  93              		.loc 1 24 5
GAS LISTING /tmp/ccA6oN5C.s 			page 3


  94              		.loc 1 24 45 is_stmt 0
  95              	#APP
  96              	# 24 "src/syscall_c.cpp" 1
  25              	    __asm__ volatile ("mv a0, %0":: "r"(opCode));
  97              		mv a1, a0
  98              	# 0 "" 2
  99              		.loc 1 25 5 is_stmt 1
 100              		.loc 1 25 49 is_stmt 0
 101              	#NO_APP
 102 0050 93072000 		li	a5,2
 103              	#APP
 104              	# 25 "src/syscall_c.cpp" 1
  26              	
  27:src/syscall_c.cpp ****     __asm__ volatile("ecall");
 105              		mv a0, a5
 106              	# 0 "" 2
 107              		.loc 1 27 5 is_stmt 1
 108              		.loc 1 27 30 is_stmt 0
 109              	# 27 "src/syscall_c.cpp" 1
  28              	
  29:src/syscall_c.cpp ****     __asm__ volatile ("mv %[b], a0" : [b] "=r"(b));
 110              		ecall
 111              	# 0 "" 2
 112              		.loc 1 29 5 is_stmt 1
 113              		.loc 1 29 51 is_stmt 0
 114              	# 29 "src/syscall_c.cpp" 1
  30              	    return b;
 115              		mv a0, a0
 116              	# 0 "" 2
 117              	.LVL8:
 118              		.loc 1 30 5 is_stmt 1
  31:src/syscall_c.cpp **** }
 119              		.loc 1 31 1 is_stmt 0
 120              	#NO_APP
 121 0060 1B050500 		sext.w	a0,a0
 122 0064 03348100 		ld	s0,8(sp)
 123              		.cfi_restore 8
 124              		.cfi_def_cfa 2, 16
 125 0068 13010101 		addi	sp,sp,16
 126              		.cfi_def_cfa_offset 0
 127 006c 67800000 		jr	ra
 128              		.cfi_endproc
 129              	.LFE17:
 131              		.align	2
 132              		.globl	_Z13thread_createPP3TCBPFvPvES2_
 134              	_Z13thread_createPP3TCBPFvPvES2_:
 135              	.LFB18:
  32:src/syscall_c.cpp **** 
  33:src/syscall_c.cpp **** int thread_create(
  34:src/syscall_c.cpp ****         thread_t *handle,
  35:src/syscall_c.cpp ****         void(*start_routine)(void *),
  36:src/syscall_c.cpp ****         void *arg
  37:src/syscall_c.cpp **** ) {
 136              		.loc 1 37 3 is_stmt 1
 137              		.cfi_startproc
 138              	.LVL9:
 139 0070 130101FD 		addi	sp,sp,-48
GAS LISTING /tmp/ccA6oN5C.s 			page 4


 140              		.cfi_def_cfa_offset 48
 141 0074 23341102 		sd	ra,40(sp)
 142 0078 23308102 		sd	s0,32(sp)
 143 007c 233C9100 		sd	s1,24(sp)
 144 0080 23382101 		sd	s2,16(sp)
 145 0084 23343101 		sd	s3,8(sp)
 146              		.cfi_offset 1, -8
 147              		.cfi_offset 8, -16
 148              		.cfi_offset 9, -24
 149              		.cfi_offset 18, -32
 150              		.cfi_offset 19, -40
 151 0088 13040103 		addi	s0,sp,48
 152              		.cfi_def_cfa 8, 0
 153 008c 93040500 		mv	s1,a0
 154 0090 13890500 		mv	s2,a1
 155 0094 93090600 		mv	s3,a2
  38:src/syscall_c.cpp ****     int b;
 156              		.loc 1 38 5
  39:src/syscall_c.cpp **** 
  40:src/syscall_c.cpp ****     size_t opCode = 0x11;
 157              		.loc 1 40 5
 158              	.LVL10:
  41:src/syscall_c.cpp ****     void* stack = mem_alloc(DEFAULT_STACK_SIZE);
 159              		.loc 1 41 5
 160              		.loc 1 41 28 is_stmt 0
 161 0098 37150000 		li	a0,4096
 162              	.LVL11:
 163 009c 97000000 		call	_Z9mem_allocm
 163      E7800000 
 164              	.LVL12:
  42:src/syscall_c.cpp ****     __asm__ volatile("mv a4, %0":: "r"(stack));
 165              		.loc 1 42 5 is_stmt 1
 166              		.loc 1 42 47 is_stmt 0
 167              	#APP
 168              	# 42 "src/syscall_c.cpp" 1
  43              	    __asm__ volatile("mv a3, %0":: "r"(arg));
 169              		mv a4, a0
 170              	# 0 "" 2
 171              		.loc 1 43 5 is_stmt 1
 172              		.loc 1 43 45 is_stmt 0
 173              	# 43 "src/syscall_c.cpp" 1
  44              	    __asm__ volatile("mv a2, %0":: "r"(start_routine));
 174              		mv a3, s3
 175              	# 0 "" 2
 176              		.loc 1 44 5 is_stmt 1
 177              		.loc 1 44 55 is_stmt 0
 178              	# 44 "src/syscall_c.cpp" 1
  45              	    __asm__ volatile("mv a1, %0":: "r"(handle));
 179              		mv a2, s2
 180              	# 0 "" 2
 181              		.loc 1 45 5 is_stmt 1
 182              		.loc 1 45 48 is_stmt 0
 183              	# 45 "src/syscall_c.cpp" 1
  46              	    __asm__ volatile ("mv a0, %0":: "r"(opCode));
 184              		mv a1, s1
 185              	# 0 "" 2
 186              		.loc 1 46 5 is_stmt 1
GAS LISTING /tmp/ccA6oN5C.s 			page 5


 187              		.loc 1 46 49 is_stmt 0
 188              	#NO_APP
 189 00b4 93071001 		li	a5,17
 190              	#APP
 191              	# 46 "src/syscall_c.cpp" 1
  47              	//    asm volatile("mv a3, a2");
  48:src/syscall_c.cpp **** //    asm volatile("mv a2, a1");
  49:src/syscall_c.cpp **** //    asm volatile("mv a1, a0");
  50:src/syscall_c.cpp **** 
  51:src/syscall_c.cpp ****     __asm__ volatile("ecall");
 192              		mv a0, a5
 193              	# 0 "" 2
 194              		.loc 1 51 5 is_stmt 1
 195              		.loc 1 51 30 is_stmt 0
 196              	# 51 "src/syscall_c.cpp" 1
  52              	
  53:src/syscall_c.cpp ****     __asm__ volatile ("mv %[b], a0" : [b] "=r"(b));
 197              		ecall
 198              	# 0 "" 2
 199              		.loc 1 53 5 is_stmt 1
 200              		.loc 1 53 51 is_stmt 0
 201              	# 53 "src/syscall_c.cpp" 1
  54              	    return b;
 202              		mv a0, a0
 203              	# 0 "" 2
 204              	.LVL13:
 205              		.loc 1 54 5 is_stmt 1
  55:src/syscall_c.cpp **** }
 206              		.loc 1 55 1 is_stmt 0
 207              	#NO_APP
 208 00c4 1B050500 		sext.w	a0,a0
 209 00c8 83308102 		ld	ra,40(sp)
 210              		.cfi_restore 1
 211 00cc 03340102 		ld	s0,32(sp)
 212              		.cfi_restore 8
 213              		.cfi_def_cfa 2, 48
 214 00d0 83348101 		ld	s1,24(sp)
 215              		.cfi_restore 9
 216              	.LVL14:
 217 00d4 03390101 		ld	s2,16(sp)
 218              		.cfi_restore 18
 219              	.LVL15:
 220 00d8 83398100 		ld	s3,8(sp)
 221              		.cfi_restore 19
 222              	.LVL16:
 223 00dc 13010103 		addi	sp,sp,48
 224              		.cfi_def_cfa_offset 0
 225 00e0 67800000 		jr	ra
 226              		.cfi_endproc
 227              	.LFE18:
 229              		.align	2
 230              		.globl	_Z11thread_exitv
 232              	_Z11thread_exitv:
 233              	.LFB19:
  56:src/syscall_c.cpp **** 
  57:src/syscall_c.cpp **** int thread_exit() {
 234              		.loc 1 57 19 is_stmt 1
GAS LISTING /tmp/ccA6oN5C.s 			page 6


 235              		.cfi_startproc
 236 00e4 130101FF 		addi	sp,sp,-16
 237              		.cfi_def_cfa_offset 16
 238 00e8 23348100 		sd	s0,8(sp)
 239              		.cfi_offset 8, -8
 240 00ec 13040101 		addi	s0,sp,16
 241              		.cfi_def_cfa 8, 0
  58:src/syscall_c.cpp ****     int b;
 242              		.loc 1 58 5
  59:src/syscall_c.cpp **** 
  60:src/syscall_c.cpp ****     size_t opCode = 0x12;
 243              		.loc 1 60 5
 244              	.LVL17:
  61:src/syscall_c.cpp ****     __asm__ volatile ("mv a0, %0":: "r"(opCode));
 245              		.loc 1 61 5
 246              		.loc 1 61 49 is_stmt 0
 247 00f0 93072001 		li	a5,18
 248              	#APP
 249              	# 61 "src/syscall_c.cpp" 1
  62              	
  63:src/syscall_c.cpp ****     __asm__ volatile("ecall");
 250              		mv a0, a5
 251              	# 0 "" 2
 252              		.loc 1 63 5 is_stmt 1
 253              		.loc 1 63 30 is_stmt 0
 254              	# 63 "src/syscall_c.cpp" 1
  64              	
  65:src/syscall_c.cpp ****     __asm__ volatile ("mv %[b], a0" : [b] "=r"(b));
 255              		ecall
 256              	# 0 "" 2
 257              		.loc 1 65 5 is_stmt 1
 258              		.loc 1 65 51 is_stmt 0
 259              	# 65 "src/syscall_c.cpp" 1
  66              	    return b;
 260              		mv a0, a0
 261              	# 0 "" 2
 262              	.LVL18:
 263              		.loc 1 66 5 is_stmt 1
  67:src/syscall_c.cpp **** }
 264              		.loc 1 67 1 is_stmt 0
 265              	#NO_APP
 266 0100 1B050500 		sext.w	a0,a0
 267 0104 03348100 		ld	s0,8(sp)
 268              		.cfi_restore 8
 269              		.cfi_def_cfa 2, 16
 270 0108 13010101 		addi	sp,sp,16
 271              		.cfi_def_cfa_offset 0
 272 010c 67800000 		jr	ra
 273              		.cfi_endproc
 274              	.LFE19:
 276              		.align	2
 277              		.globl	_Z15thread_dispatchv
 279              	_Z15thread_dispatchv:
 280              	.LFB20:
  68:src/syscall_c.cpp **** 
  69:src/syscall_c.cpp **** void thread_dispatch() {
 281              		.loc 1 69 24 is_stmt 1
GAS LISTING /tmp/ccA6oN5C.s 			page 7


 282              		.cfi_startproc
 283 0110 130101FF 		addi	sp,sp,-16
 284              		.cfi_def_cfa_offset 16
 285 0114 23348100 		sd	s0,8(sp)
 286              		.cfi_offset 8, -8
 287 0118 13040101 		addi	s0,sp,16
 288              		.cfi_def_cfa 8, 0
  70:src/syscall_c.cpp **** 
  71:src/syscall_c.cpp ****     size_t opCode = 0x13;
 289              		.loc 1 71 5
 290              	.LVL19:
  72:src/syscall_c.cpp ****     __asm__ volatile ("mv a0, %0":: "r"(opCode));
 291              		.loc 1 72 5
 292              		.loc 1 72 49 is_stmt 0
 293 011c 93073001 		li	a5,19
 294              	#APP
 295              	# 72 "src/syscall_c.cpp" 1
  73              	
  74:src/syscall_c.cpp ****     __asm__ volatile("ecall");
 296              		mv a0, a5
 297              	# 0 "" 2
 298              		.loc 1 74 5 is_stmt 1
 299              		.loc 1 74 30 is_stmt 0
 300              	# 74 "src/syscall_c.cpp" 1
  75              	}
 301              		ecall
 302              	# 0 "" 2
 303              		.loc 1 75 1
 304              	#NO_APP
 305 0128 03348100 		ld	s0,8(sp)
 306              		.cfi_restore 8
 307              		.cfi_def_cfa 2, 16
 308 012c 13010101 		addi	sp,sp,16
 309              		.cfi_def_cfa_offset 0
 310 0130 67800000 		jr	ra
 311              		.cfi_endproc
 312              	.LFE20:
 314              		.align	2
 315              		.globl	_Z11thread_joinP3TCB
 317              	_Z11thread_joinP3TCB:
 318              	.LFB21:
  76:src/syscall_c.cpp **** 
  77:src/syscall_c.cpp **** void thread_join(thread_t handle) {
 319              		.loc 1 77 35 is_stmt 1
 320              		.cfi_startproc
 321              	.LVL20:
 322 0134 130101FF 		addi	sp,sp,-16
 323              		.cfi_def_cfa_offset 16
 324 0138 23348100 		sd	s0,8(sp)
 325              		.cfi_offset 8, -8
 326 013c 13040101 		addi	s0,sp,16
 327              		.cfi_def_cfa 8, 0
  78:src/syscall_c.cpp **** 
  79:src/syscall_c.cpp ****     size_t opCode = 0x14;
 328              		.loc 1 79 5
 329              	.LVL21:
  80:src/syscall_c.cpp ****     __asm__ volatile("mv a1, %0":: "r"(handle));
GAS LISTING /tmp/ccA6oN5C.s 			page 8


 330              		.loc 1 80 5
 331              		.loc 1 80 48 is_stmt 0
 332              	#APP
 333              	# 80 "src/syscall_c.cpp" 1
  81              	    __asm__ volatile ("mv a0, %0":: "r"(opCode));
 334              		mv a1, a0
 335              	# 0 "" 2
 336              		.loc 1 81 5 is_stmt 1
 337              		.loc 1 81 49 is_stmt 0
 338              	#NO_APP
 339 0144 93074001 		li	a5,20
 340              	#APP
 341              	# 81 "src/syscall_c.cpp" 1
  82              	
  83:src/syscall_c.cpp ****     __asm__ volatile("ecall");
 342              		mv a0, a5
 343              	# 0 "" 2
 344              		.loc 1 83 5 is_stmt 1
 345              		.loc 1 83 30 is_stmt 0
 346              	# 83 "src/syscall_c.cpp" 1
  84              	}
 347              		ecall
 348              	# 0 "" 2
 349              		.loc 1 84 1
 350              	#NO_APP
 351 0150 03348100 		ld	s0,8(sp)
 352              		.cfi_restore 8
 353              		.cfi_def_cfa 2, 16
 354 0154 13010101 		addi	sp,sp,16
 355              		.cfi_def_cfa_offset 0
 356 0158 67800000 		jr	ra
 357              		.cfi_endproc
 358              	.LFE21:
 360              		.align	2
 361              		.globl	_Z13thread_get_idv
 363              	_Z13thread_get_idv:
 364              	.LFB22:
  85:src/syscall_c.cpp **** 
  86:src/syscall_c.cpp **** int thread_get_id() {
 365              		.loc 1 86 21 is_stmt 1
 366              		.cfi_startproc
 367 015c 130101FF 		addi	sp,sp,-16
 368              		.cfi_def_cfa_offset 16
 369 0160 23348100 		sd	s0,8(sp)
 370              		.cfi_offset 8, -8
 371 0164 13040101 		addi	s0,sp,16
 372              		.cfi_def_cfa 8, 0
  87:src/syscall_c.cpp ****     int b;
 373              		.loc 1 87 5
  88:src/syscall_c.cpp **** 
  89:src/syscall_c.cpp ****     size_t opCode = 0x15;
 374              		.loc 1 89 5
 375              	.LVL22:
  90:src/syscall_c.cpp ****     __asm__ volatile ("mv a0, %0":: "r"(opCode));
 376              		.loc 1 90 5
 377              		.loc 1 90 49 is_stmt 0
 378 0168 93075001 		li	a5,21
GAS LISTING /tmp/ccA6oN5C.s 			page 9


 379              	#APP
 380              	# 90 "src/syscall_c.cpp" 1
  91              	
  92:src/syscall_c.cpp ****     __asm__ volatile("ecall");
 381              		mv a0, a5
 382              	# 0 "" 2
 383              		.loc 1 92 5 is_stmt 1
 384              		.loc 1 92 30 is_stmt 0
 385              	# 92 "src/syscall_c.cpp" 1
  93              	
  94:src/syscall_c.cpp ****     __asm__ volatile ("mv %[b], a0" : [b] "=r"(b));
 386              		ecall
 387              	# 0 "" 2
 388              		.loc 1 94 5 is_stmt 1
 389              		.loc 1 94 51 is_stmt 0
 390              	# 94 "src/syscall_c.cpp" 1
  95              	    return b;
 391              		mv a0, a0
 392              	# 0 "" 2
 393              	.LVL23:
 394              		.loc 1 95 5 is_stmt 1
  96:src/syscall_c.cpp **** }
 395              		.loc 1 96 1 is_stmt 0
 396              	#NO_APP
 397 0178 1B050500 		sext.w	a0,a0
 398 017c 03348100 		ld	s0,8(sp)
 399              		.cfi_restore 8
 400              		.cfi_def_cfa 2, 16
 401 0180 13010101 		addi	sp,sp,16
 402              		.cfi_def_cfa_offset 0
 403 0184 67800000 		jr	ra
 404              		.cfi_endproc
 405              	.LFE22:
 407              		.align	2
 408              		.globl	_Z13setMaxThreadsi
 410              	_Z13setMaxThreadsi:
 411              	.LFB23:
  97:src/syscall_c.cpp **** 
  98:src/syscall_c.cpp **** void setMaxThreads(int numOfThreads){
 412              		.loc 1 98 37 is_stmt 1
 413              		.cfi_startproc
 414              	.LVL24:
 415 0188 130101FF 		addi	sp,sp,-16
 416              		.cfi_def_cfa_offset 16
 417 018c 23348100 		sd	s0,8(sp)
 418              		.cfi_offset 8, -8
 419 0190 13040101 		addi	s0,sp,16
 420              		.cfi_def_cfa 8, 0
  99:src/syscall_c.cpp **** 
 100:src/syscall_c.cpp ****     size_t opCode = 0x16;
 421              		.loc 1 100 5
 422              	.LVL25:
 101:src/syscall_c.cpp ****     __asm__ volatile("mv a1, %0":: "r"(numOfThreads));
 423              		.loc 1 101 5
 424              		.loc 1 101 54 is_stmt 0
 425              	#APP
 426              	# 101 "src/syscall_c.cpp" 1
GAS LISTING /tmp/ccA6oN5C.s 			page 10


 102              	    __asm__ volatile ("mv a0, %0":: "r"(opCode));
 427              		mv a1, a0
 428              	# 0 "" 2
 429              		.loc 1 102 5 is_stmt 1
 430              		.loc 1 102 49 is_stmt 0
 431              	#NO_APP
 432 0198 93076001 		li	a5,22
 433              	#APP
 434              	# 102 "src/syscall_c.cpp" 1
 103              	
 104:src/syscall_c.cpp ****     __asm__ volatile("ecall");
 435              		mv a0, a5
 436              	# 0 "" 2
 437              		.loc 1 104 5 is_stmt 1
 438              		.loc 1 104 30 is_stmt 0
 439              	# 104 "src/syscall_c.cpp" 1
 105              	}
 440              		ecall
 441              	# 0 "" 2
 442              		.loc 1 105 1
 443              	#NO_APP
 444 01a4 03348100 		ld	s0,8(sp)
 445              		.cfi_restore 8
 446              		.cfi_def_cfa 2, 16
 447 01a8 13010101 		addi	sp,sp,16
 448              		.cfi_def_cfa_offset 0
 449 01ac 67800000 		jr	ra
 450              		.cfi_endproc
 451              	.LFE23:
 453              		.align	2
 454              		.globl	_Z8sem_openPP3SEMj
 456              	_Z8sem_openPP3SEMj:
 457              	.LFB24:
 106:src/syscall_c.cpp **** 
 107:src/syscall_c.cpp **** 
 108:src/syscall_c.cpp **** 
 109:src/syscall_c.cpp **** int sem_open(sem_t *handle, unsigned int init) {
 458              		.loc 1 109 48 is_stmt 1
 459              		.cfi_startproc
 460              	.LVL26:
 461 01b0 130101FF 		addi	sp,sp,-16
 462              		.cfi_def_cfa_offset 16
 463 01b4 23348100 		sd	s0,8(sp)
 464              		.cfi_offset 8, -8
 465 01b8 13040101 		addi	s0,sp,16
 466              		.cfi_def_cfa 8, 0
 110:src/syscall_c.cpp ****     int b;
 467              		.loc 1 110 5
 111:src/syscall_c.cpp **** 
 112:src/syscall_c.cpp ****     size_t opCode = 0x21;
 468              		.loc 1 112 5
 469              	.LVL27:
 113:src/syscall_c.cpp ****     __asm__ volatile("mv a2, %0":: "r"(init));
 470              		.loc 1 113 5
 471              		.loc 1 113 46 is_stmt 0
 472              	#APP
 473              	# 113 "src/syscall_c.cpp" 1
GAS LISTING /tmp/ccA6oN5C.s 			page 11


 114              	    __asm__ volatile("mv a1, %0":: "r"(handle));
 474              		mv a2, a1
 475              	# 0 "" 2
 476              		.loc 1 114 5 is_stmt 1
 477              		.loc 1 114 48 is_stmt 0
 478              	# 114 "src/syscall_c.cpp" 1
 115              	    __asm__ volatile ("mv a0, %0":: "r"(opCode));
 479              		mv a1, a0
 480              	# 0 "" 2
 481              		.loc 1 115 5 is_stmt 1
 482              		.loc 1 115 49 is_stmt 0
 483              	#NO_APP
 484 01c4 93071002 		li	a5,33
 485              	#APP
 486              	# 115 "src/syscall_c.cpp" 1
 116              	
 117:src/syscall_c.cpp ****     __asm__ volatile("ecall");
 487              		mv a0, a5
 488              	# 0 "" 2
 489              		.loc 1 117 5 is_stmt 1
 490              		.loc 1 117 30 is_stmt 0
 491              	# 117 "src/syscall_c.cpp" 1
 118              	
 119:src/syscall_c.cpp ****     __asm__ volatile ("mv %[b], a0" : [b] "=r"(b));
 492              		ecall
 493              	# 0 "" 2
 494              		.loc 1 119 5 is_stmt 1
 495              		.loc 1 119 51 is_stmt 0
 496              	# 119 "src/syscall_c.cpp" 1
 120              	    return b;
 497              		mv a0, a0
 498              	# 0 "" 2
 499              	.LVL28:
 500              		.loc 1 120 5 is_stmt 1
 121:src/syscall_c.cpp **** }
 501              		.loc 1 121 1 is_stmt 0
 502              	#NO_APP
 503 01d4 1B050500 		sext.w	a0,a0
 504 01d8 03348100 		ld	s0,8(sp)
 505              		.cfi_restore 8
 506              		.cfi_def_cfa 2, 16
 507 01dc 13010101 		addi	sp,sp,16
 508              		.cfi_def_cfa_offset 0
 509 01e0 67800000 		jr	ra
 510              		.cfi_endproc
 511              	.LFE24:
 513              		.align	2
 514              		.globl	_Z9sem_closeP3SEM
 516              	_Z9sem_closeP3SEM:
 517              	.LFB25:
 122:src/syscall_c.cpp **** 
 123:src/syscall_c.cpp **** int sem_close(sem_t handle) {
 518              		.loc 1 123 29 is_stmt 1
 519              		.cfi_startproc
 520              	.LVL29:
 521 01e4 130101FF 		addi	sp,sp,-16
 522              		.cfi_def_cfa_offset 16
GAS LISTING /tmp/ccA6oN5C.s 			page 12


 523 01e8 23348100 		sd	s0,8(sp)
 524              		.cfi_offset 8, -8
 525 01ec 13040101 		addi	s0,sp,16
 526              		.cfi_def_cfa 8, 0
 124:src/syscall_c.cpp ****     int b;
 527              		.loc 1 124 5
 125:src/syscall_c.cpp **** 
 126:src/syscall_c.cpp ****     size_t opCode = 0x22;
 528              		.loc 1 126 5
 529              	.LVL30:
 127:src/syscall_c.cpp ****     __asm__ volatile("mv a1, %0":: "r"(handle));
 530              		.loc 1 127 5
 531              		.loc 1 127 48 is_stmt 0
 532              	#APP
 533              	# 127 "src/syscall_c.cpp" 1
 128              	    __asm__ volatile ("mv a0, %0":: "r"(opCode));
 534              		mv a1, a0
 535              	# 0 "" 2
 536              		.loc 1 128 5 is_stmt 1
 537              		.loc 1 128 49 is_stmt 0
 538              	#NO_APP
 539 01f4 93072002 		li	a5,34
 540              	#APP
 541              	# 128 "src/syscall_c.cpp" 1
 129              	
 130:src/syscall_c.cpp ****     __asm__ volatile("ecall");
 542              		mv a0, a5
 543              	# 0 "" 2
 544              		.loc 1 130 5 is_stmt 1
 545              		.loc 1 130 30 is_stmt 0
 546              	# 130 "src/syscall_c.cpp" 1
 131              	
 132:src/syscall_c.cpp ****     __asm__ volatile ("mv %[b], a0" : [b] "=r"(b));
 547              		ecall
 548              	# 0 "" 2
 549              		.loc 1 132 5 is_stmt 1
 550              		.loc 1 132 51 is_stmt 0
 551              	# 132 "src/syscall_c.cpp" 1
 133              	    return b;
 552              		mv a0, a0
 553              	# 0 "" 2
 554              	.LVL31:
 555              		.loc 1 133 5 is_stmt 1
 134:src/syscall_c.cpp **** }
 556              		.loc 1 134 1 is_stmt 0
 557              	#NO_APP
 558 0204 1B050500 		sext.w	a0,a0
 559 0208 03348100 		ld	s0,8(sp)
 560              		.cfi_restore 8
 561              		.cfi_def_cfa 2, 16
 562 020c 13010101 		addi	sp,sp,16
 563              		.cfi_def_cfa_offset 0
 564 0210 67800000 		jr	ra
 565              		.cfi_endproc
 566              	.LFE25:
 568              		.align	2
 569              		.globl	_Z8sem_waitP3SEM
GAS LISTING /tmp/ccA6oN5C.s 			page 13


 571              	_Z8sem_waitP3SEM:
 572              	.LFB26:
 135:src/syscall_c.cpp **** 
 136:src/syscall_c.cpp **** int sem_wait(sem_t id) {
 573              		.loc 1 136 24 is_stmt 1
 574              		.cfi_startproc
 575              	.LVL32:
 576 0214 130101FF 		addi	sp,sp,-16
 577              		.cfi_def_cfa_offset 16
 578 0218 23348100 		sd	s0,8(sp)
 579              		.cfi_offset 8, -8
 580 021c 13040101 		addi	s0,sp,16
 581              		.cfi_def_cfa 8, 0
 137:src/syscall_c.cpp ****     int b;
 582              		.loc 1 137 5
 138:src/syscall_c.cpp **** 
 139:src/syscall_c.cpp ****     size_t opCode = 0x23;
 583              		.loc 1 139 5
 584              	.LVL33:
 140:src/syscall_c.cpp ****     __asm__ volatile("mv a1, %0":: "r"(id));
 585              		.loc 1 140 5
 586              		.loc 1 140 44 is_stmt 0
 587              	#APP
 588              	# 140 "src/syscall_c.cpp" 1
 141              	    __asm__ volatile ("mv a0, %0":: "r"(opCode));
 589              		mv a1, a0
 590              	# 0 "" 2
 591              		.loc 1 141 5 is_stmt 1
 592              		.loc 1 141 49 is_stmt 0
 593              	#NO_APP
 594 0224 93073002 		li	a5,35
 595              	#APP
 596              	# 141 "src/syscall_c.cpp" 1
 142              	
 143:src/syscall_c.cpp ****     __asm__ volatile("ecall");
 597              		mv a0, a5
 598              	# 0 "" 2
 599              		.loc 1 143 5 is_stmt 1
 600              		.loc 1 143 30 is_stmt 0
 601              	# 143 "src/syscall_c.cpp" 1
 144              	
 145:src/syscall_c.cpp ****     __asm__ volatile ("mv %[b], a0" : [b] "=r"(b));
 602              		ecall
 603              	# 0 "" 2
 604              		.loc 1 145 5 is_stmt 1
 605              		.loc 1 145 51 is_stmt 0
 606              	# 145 "src/syscall_c.cpp" 1
 146              	    return b;
 607              		mv a0, a0
 608              	# 0 "" 2
 609              	.LVL34:
 610              		.loc 1 146 5 is_stmt 1
 147:src/syscall_c.cpp **** }
 611              		.loc 1 147 1 is_stmt 0
 612              	#NO_APP
 613 0234 1B050500 		sext.w	a0,a0
 614 0238 03348100 		ld	s0,8(sp)
GAS LISTING /tmp/ccA6oN5C.s 			page 14


 615              		.cfi_restore 8
 616              		.cfi_def_cfa 2, 16
 617 023c 13010101 		addi	sp,sp,16
 618              		.cfi_def_cfa_offset 0
 619 0240 67800000 		jr	ra
 620              		.cfi_endproc
 621              	.LFE26:
 623              		.align	2
 624              		.globl	_Z10sem_signalP3SEM
 626              	_Z10sem_signalP3SEM:
 627              	.LFB27:
 148:src/syscall_c.cpp **** 
 149:src/syscall_c.cpp **** int sem_signal(sem_t id) {
 628              		.loc 1 149 26 is_stmt 1
 629              		.cfi_startproc
 630              	.LVL35:
 631 0244 130101FF 		addi	sp,sp,-16
 632              		.cfi_def_cfa_offset 16
 633 0248 23348100 		sd	s0,8(sp)
 634              		.cfi_offset 8, -8
 635 024c 13040101 		addi	s0,sp,16
 636              		.cfi_def_cfa 8, 0
 150:src/syscall_c.cpp ****     int b;
 637              		.loc 1 150 5
 151:src/syscall_c.cpp **** 
 152:src/syscall_c.cpp ****     size_t opCode = 0x24;
 638              		.loc 1 152 5
 639              	.LVL36:
 153:src/syscall_c.cpp ****     __asm__ volatile("mv a1, %0":: "r"(id));
 640              		.loc 1 153 5
 641              		.loc 1 153 44 is_stmt 0
 642              	#APP
 643              	# 153 "src/syscall_c.cpp" 1
 154              	    __asm__ volatile ("mv a0, %0":: "r"(opCode));
 644              		mv a1, a0
 645              	# 0 "" 2
 646              		.loc 1 154 5 is_stmt 1
 647              		.loc 1 154 49 is_stmt 0
 648              	#NO_APP
 649 0254 93074002 		li	a5,36
 650              	#APP
 651              	# 154 "src/syscall_c.cpp" 1
 155              	
 156:src/syscall_c.cpp ****     __asm__ volatile("ecall");
 652              		mv a0, a5
 653              	# 0 "" 2
 654              		.loc 1 156 5 is_stmt 1
 655              		.loc 1 156 30 is_stmt 0
 656              	# 156 "src/syscall_c.cpp" 1
 157              	
 158:src/syscall_c.cpp ****     __asm__ volatile ("mv %[b], a0" : [b] "=r"(b));
 657              		ecall
 658              	# 0 "" 2
 659              		.loc 1 158 5 is_stmt 1
 660              		.loc 1 158 51 is_stmt 0
 661              	# 158 "src/syscall_c.cpp" 1
 159              	    return b;
GAS LISTING /tmp/ccA6oN5C.s 			page 15


 662              		mv a0, a0
 663              	# 0 "" 2
 664              	.LVL37:
 665              		.loc 1 159 5 is_stmt 1
 160:src/syscall_c.cpp **** }
 666              		.loc 1 160 1 is_stmt 0
 667              	#NO_APP
 668 0264 1B050500 		sext.w	a0,a0
 669 0268 03348100 		ld	s0,8(sp)
 670              		.cfi_restore 8
 671              		.cfi_def_cfa 2, 16
 672 026c 13010101 		addi	sp,sp,16
 673              		.cfi_def_cfa_offset 0
 674 0270 67800000 		jr	ra
 675              		.cfi_endproc
 676              	.LFE27:
 678              		.align	2
 679              		.globl	_Z10time_sleepm
 681              	_Z10time_sleepm:
 682              	.LFB28:
 161:src/syscall_c.cpp **** 
 162:src/syscall_c.cpp **** int time_sleep(time_t){ //ovo nisam implementirao
 683              		.loc 1 162 23 is_stmt 1
 684              		.cfi_startproc
 685 0274 130101FF 		addi	sp,sp,-16
 686              		.cfi_def_cfa_offset 16
 687 0278 23348100 		sd	s0,8(sp)
 688              		.cfi_offset 8, -8
 689 027c 13040101 		addi	s0,sp,16
 690              		.cfi_def_cfa 8, 0
 163:src/syscall_c.cpp ****     int b;
 691              		.loc 1 163 5
 164:src/syscall_c.cpp **** 
 165:src/syscall_c.cpp ****     asm volatile("mv a1, a0");
 692              		.loc 1 165 5
 693              		.loc 1 165 30 is_stmt 0
 694              	#APP
 695              	# 165 "src/syscall_c.cpp" 1
 166              	    asm volatile("li a0, 0x31");
 696              		mv a1, a0
 697              	# 0 "" 2
 698              		.loc 1 166 5 is_stmt 1
 699              		.loc 1 166 32 is_stmt 0
 700              	# 166 "src/syscall_c.cpp" 1
 167              	    __asm__ volatile("ecall");
 701              		li a0, 0x31
 702              	# 0 "" 2
 703              		.loc 1 167 5 is_stmt 1
 704              		.loc 1 167 30 is_stmt 0
 705              	# 167 "src/syscall_c.cpp" 1
 168              	
 169:src/syscall_c.cpp ****     __asm__ volatile("mv %[b], a0" : [b] "=r"(b));
 706              		ecall
 707              	# 0 "" 2
 708              		.loc 1 169 5 is_stmt 1
 709              		.loc 1 169 50 is_stmt 0
 710              	# 169 "src/syscall_c.cpp" 1
GAS LISTING /tmp/ccA6oN5C.s 			page 16


 170              	    return b;
 711              		mv a0, a0
 712              	# 0 "" 2
 713              	.LVL38:
 714              		.loc 1 170 5 is_stmt 1
 171:src/syscall_c.cpp **** }
 715              		.loc 1 171 1 is_stmt 0
 716              	#NO_APP
 717 0290 1B050500 		sext.w	a0,a0
 718 0294 03348100 		ld	s0,8(sp)
 719              		.cfi_restore 8
 720              		.cfi_def_cfa 2, 16
 721 0298 13010101 		addi	sp,sp,16
 722              		.cfi_def_cfa_offset 0
 723 029c 67800000 		jr	ra
 724              		.cfi_endproc
 725              	.LFE28:
 727              		.align	2
 728              		.globl	_Z4putcc
 730              	_Z4putcc:
 731              	.LFB29:
 172:src/syscall_c.cpp **** 
 173:src/syscall_c.cpp **** 
 174:src/syscall_c.cpp **** void putc(char c) {
 732              		.loc 1 174 19 is_stmt 1
 733              		.cfi_startproc
 734              	.LVL39:
 735 02a0 130101FF 		addi	sp,sp,-16
 736              		.cfi_def_cfa_offset 16
 737 02a4 23348100 		sd	s0,8(sp)
 738              		.cfi_offset 8, -8
 739 02a8 13040101 		addi	s0,sp,16
 740              		.cfi_def_cfa 8, 0
 175:src/syscall_c.cpp **** 
 176:src/syscall_c.cpp ****     size_t opCode = 0x42;
 741              		.loc 1 176 5
 742              	.LVL40:
 177:src/syscall_c.cpp ****     __asm__ volatile("mv a1, %0":: "r"(c));
 743              		.loc 1 177 5
 744              		.loc 1 177 43 is_stmt 0
 745              	#APP
 746              	# 177 "src/syscall_c.cpp" 1
 178              	    __asm__ volatile ("mv a0, %0":: "r"(opCode));
 747              		mv a1, a0
 748              	# 0 "" 2
 749              		.loc 1 178 5 is_stmt 1
 750              		.loc 1 178 49 is_stmt 0
 751              	#NO_APP
 752 02b0 93072004 		li	a5,66
 753              	#APP
 754              	# 178 "src/syscall_c.cpp" 1
 179              	
 180:src/syscall_c.cpp ****     __asm__ volatile("ecall");
 755              		mv a0, a5
 756              	# 0 "" 2
 757              		.loc 1 180 5 is_stmt 1
 758              		.loc 1 180 30 is_stmt 0
GAS LISTING /tmp/ccA6oN5C.s 			page 17


 759              	# 180 "src/syscall_c.cpp" 1
 181              	}
 760              		ecall
 761              	# 0 "" 2
 762              		.loc 1 181 1
 763              	#NO_APP
 764 02bc 03348100 		ld	s0,8(sp)
 765              		.cfi_restore 8
 766              		.cfi_def_cfa 2, 16
 767 02c0 13010101 		addi	sp,sp,16
 768              		.cfi_def_cfa_offset 0
 769 02c4 67800000 		jr	ra
 770              		.cfi_endproc
 771              	.LFE29:
 773              		.align	2
 774              		.globl	_Z4getcv
 776              	_Z4getcv:
 777              	.LFB30:
 182:src/syscall_c.cpp **** 
 183:src/syscall_c.cpp **** char getc() {
 778              		.loc 1 183 13 is_stmt 1
 779              		.cfi_startproc
 780 02c8 130101FF 		addi	sp,sp,-16
 781              		.cfi_def_cfa_offset 16
 782 02cc 23348100 		sd	s0,8(sp)
 783              		.cfi_offset 8, -8
 784 02d0 13040101 		addi	s0,sp,16
 785              		.cfi_def_cfa 8, 0
 184:src/syscall_c.cpp ****     char b;
 786              		.loc 1 184 5
 185:src/syscall_c.cpp **** 
 186:src/syscall_c.cpp ****     size_t opCode = 0x41;
 787              		.loc 1 186 5
 788              	.LVL41:
 187:src/syscall_c.cpp ****     __asm__ volatile ("mv a0, %0":: "r"(opCode));
 789              		.loc 1 187 5
 790              		.loc 1 187 49 is_stmt 0
 791 02d4 93071004 		li	a5,65
 792              	#APP
 793              	# 187 "src/syscall_c.cpp" 1
 188              	
 189:src/syscall_c.cpp ****     __asm__ volatile("ecall");
 794              		mv a0, a5
 795              	# 0 "" 2
 796              		.loc 1 189 5 is_stmt 1
 797              		.loc 1 189 30 is_stmt 0
 798              	# 189 "src/syscall_c.cpp" 1
 190              	
 191:src/syscall_c.cpp ****     __asm__ volatile ("mv %[b], a0" : [b] "=r"(b));
 799              		ecall
 800              	# 0 "" 2
 801              		.loc 1 191 5 is_stmt 1
 802              		.loc 1 191 51 is_stmt 0
 803              	# 191 "src/syscall_c.cpp" 1
 192              	    return b;
 804              		mv a0, a0
 805              	# 0 "" 2
GAS LISTING /tmp/ccA6oN5C.s 			page 18


 806              	.LVL42:
 807              		.loc 1 192 5 is_stmt 1
 193:src/syscall_c.cpp **** }
 808              		.loc 1 193 1 is_stmt 0
 809              	#NO_APP
 810 02e4 1375F50F 		andi	a0,a0,0xff
 811 02e8 03348100 		ld	s0,8(sp)
 812              		.cfi_restore 8
 813              		.cfi_def_cfa 2, 16
 814 02ec 13010101 		addi	sp,sp,16
 815              		.cfi_def_cfa_offset 0
 816 02f0 67800000 		jr	ra
 817              		.cfi_endproc
 818              	.LFE30:
 820              	.Letext0:
 821              		.file 2 "src/../h/../lib/hw.h"
 822              		.file 3 "src/../h/syscall_c.h"
GAS LISTING /tmp/ccA6oN5C.s 			page 19


DEFINED SYMBOLS
                            *ABS*:0000000000000000 syscall_c.cpp
     /tmp/ccA6oN5C.s:9      .text:0000000000000000 _Z9mem_allocm
     /tmp/ccA6oN5C.s:13     .text:0000000000000000 .L0 
     /tmp/ccA6oN5C.s:15     .text:0000000000000000 .L0 
     /tmp/ccA6oN5C.s:16     .text:0000000000000004 .L0 
     /tmp/ccA6oN5C.s:18     .text:0000000000000008 .L0 
     /tmp/ccA6oN5C.s:20     .text:000000000000000c .L0 
     /tmp/ccA6oN5C.s:22     .text:000000000000000c .L0 
     /tmp/ccA6oN5C.s:23     .text:000000000000000c .L0 
     /tmp/ccA6oN5C.s:24     .text:000000000000000c .L0 
     /tmp/ccA6oN5C.s:27     .text:0000000000000010 .L0 
     /tmp/ccA6oN5C.s:28     .text:0000000000000010 .L0 
     /tmp/ccA6oN5C.s:31     .text:0000000000000014 .L0 
     /tmp/ccA6oN5C.s:36     .text:000000000000001c .L0 
     /tmp/ccA6oN5C.s:39     .text:0000000000000020 .L0 
     /tmp/ccA6oN5C.s:40     .text:0000000000000020 .L0 
   src/syscall_c.cpp:11     .text:0000000000000020 .L0 
     /tmp/ccA6oN5C.s:46     .text:0000000000000024 .L0 
     /tmp/ccA6oN5C.s:48     .text:0000000000000024 .L0 
     /tmp/ccA6oN5C.s:54     .text:000000000000002c .L0 
   src/syscall_c.cpp:14     .text:000000000000002c .L0 
     /tmp/ccA6oN5C.s:59     .text:0000000000000030 .L0 
   src/syscall_c.cpp:16     .text:0000000000000030 .L0 
     /tmp/ccA6oN5C.s:65     .text:0000000000000034 .L0 
     /tmp/ccA6oN5C.s:67     .text:0000000000000034 .L0 
     /tmp/ccA6oN5C.s:68     .text:0000000000000038 .L0 
     /tmp/ccA6oN5C.s:69     .text:0000000000000038 .L0 
     /tmp/ccA6oN5C.s:71     .text:000000000000003c .L0 
     /tmp/ccA6oN5C.s:73     .text:0000000000000040 .L0 
     /tmp/ccA6oN5C.s:79     .text:0000000000000040 _Z8mem_freePv
     /tmp/ccA6oN5C.s:82     .text:0000000000000040 .L0 
     /tmp/ccA6oN5C.s:84     .text:0000000000000040 .L0 
     /tmp/ccA6oN5C.s:85     .text:0000000000000044 .L0 
     /tmp/ccA6oN5C.s:87     .text:0000000000000048 .L0 
     /tmp/ccA6oN5C.s:89     .text:000000000000004c .L0 
     /tmp/ccA6oN5C.s:91     .text:000000000000004c .L0 
     /tmp/ccA6oN5C.s:93     .text:000000000000004c .L0 
     /tmp/ccA6oN5C.s:94     .text:000000000000004c .L0 
   src/syscall_c.cpp:24     .text:000000000000004c .L0 
     /tmp/ccA6oN5C.s:100    .text:0000000000000050 .L0 
     /tmp/ccA6oN5C.s:102    .text:0000000000000050 .L0 
     /tmp/ccA6oN5C.s:108    .text:0000000000000058 .L0 
   src/syscall_c.cpp:27     .text:0000000000000058 .L0 
     /tmp/ccA6oN5C.s:113    .text:000000000000005c .L0 
   src/syscall_c.cpp:29     .text:000000000000005c .L0 
     /tmp/ccA6oN5C.s:119    .text:0000000000000060 .L0 
     /tmp/ccA6oN5C.s:121    .text:0000000000000060 .L0 
     /tmp/ccA6oN5C.s:123    .text:0000000000000068 .L0 
     /tmp/ccA6oN5C.s:124    .text:0000000000000068 .L0 
     /tmp/ccA6oN5C.s:126    .text:000000000000006c .L0 
     /tmp/ccA6oN5C.s:128    .text:0000000000000070 .L0 
     /tmp/ccA6oN5C.s:134    .text:0000000000000070 _Z13thread_createPP3TCBPFvPvES2_
     /tmp/ccA6oN5C.s:137    .text:0000000000000070 .L0 
     /tmp/ccA6oN5C.s:139    .text:0000000000000070 .L0 
     /tmp/ccA6oN5C.s:140    .text:0000000000000074 .L0 
     /tmp/ccA6oN5C.s:146    .text:0000000000000088 .L0 
GAS LISTING /tmp/ccA6oN5C.s 			page 20


     /tmp/ccA6oN5C.s:147    .text:0000000000000088 .L0 
     /tmp/ccA6oN5C.s:148    .text:0000000000000088 .L0 
     /tmp/ccA6oN5C.s:149    .text:0000000000000088 .L0 
     /tmp/ccA6oN5C.s:150    .text:0000000000000088 .L0 
     /tmp/ccA6oN5C.s:152    .text:000000000000008c .L0 
     /tmp/ccA6oN5C.s:157    .text:0000000000000098 .L0 
     /tmp/ccA6oN5C.s:159    .text:0000000000000098 .L0 
     /tmp/ccA6oN5C.s:160    .text:0000000000000098 .L0 
     /tmp/ccA6oN5C.s:161    .text:0000000000000098 .L0 
     /tmp/ccA6oN5C.s:166    .text:00000000000000a4 .L0 
   src/syscall_c.cpp:42     .text:00000000000000a4 .L0 
     /tmp/ccA6oN5C.s:172    .text:00000000000000a8 .L0 
   src/syscall_c.cpp:43     .text:00000000000000a8 .L0 
     /tmp/ccA6oN5C.s:177    .text:00000000000000ac .L0 
   src/syscall_c.cpp:44     .text:00000000000000ac .L0 
     /tmp/ccA6oN5C.s:182    .text:00000000000000b0 .L0 
   src/syscall_c.cpp:45     .text:00000000000000b0 .L0 
     /tmp/ccA6oN5C.s:187    .text:00000000000000b4 .L0 
     /tmp/ccA6oN5C.s:189    .text:00000000000000b4 .L0 
     /tmp/ccA6oN5C.s:195    .text:00000000000000bc .L0 
   src/syscall_c.cpp:51     .text:00000000000000bc .L0 
     /tmp/ccA6oN5C.s:200    .text:00000000000000c0 .L0 
   src/syscall_c.cpp:53     .text:00000000000000c0 .L0 
     /tmp/ccA6oN5C.s:206    .text:00000000000000c4 .L0 
     /tmp/ccA6oN5C.s:208    .text:00000000000000c4 .L0 
     /tmp/ccA6oN5C.s:210    .text:00000000000000cc .L0 
     /tmp/ccA6oN5C.s:212    .text:00000000000000d0 .L0 
     /tmp/ccA6oN5C.s:213    .text:00000000000000d0 .L0 
     /tmp/ccA6oN5C.s:215    .text:00000000000000d4 .L0 
     /tmp/ccA6oN5C.s:218    .text:00000000000000d8 .L0 
     /tmp/ccA6oN5C.s:221    .text:00000000000000dc .L0 
     /tmp/ccA6oN5C.s:224    .text:00000000000000e0 .L0 
     /tmp/ccA6oN5C.s:226    .text:00000000000000e4 .L0 
     /tmp/ccA6oN5C.s:232    .text:00000000000000e4 _Z11thread_exitv
     /tmp/ccA6oN5C.s:235    .text:00000000000000e4 .L0 
     /tmp/ccA6oN5C.s:236    .text:00000000000000e4 .L0 
     /tmp/ccA6oN5C.s:237    .text:00000000000000e8 .L0 
     /tmp/ccA6oN5C.s:239    .text:00000000000000ec .L0 
     /tmp/ccA6oN5C.s:241    .text:00000000000000f0 .L0 
     /tmp/ccA6oN5C.s:243    .text:00000000000000f0 .L0 
     /tmp/ccA6oN5C.s:245    .text:00000000000000f0 .L0 
     /tmp/ccA6oN5C.s:246    .text:00000000000000f0 .L0 
     /tmp/ccA6oN5C.s:247    .text:00000000000000f0 .L0 
     /tmp/ccA6oN5C.s:253    .text:00000000000000f8 .L0 
   src/syscall_c.cpp:63     .text:00000000000000f8 .L0 
     /tmp/ccA6oN5C.s:258    .text:00000000000000fc .L0 
   src/syscall_c.cpp:65     .text:00000000000000fc .L0 
     /tmp/ccA6oN5C.s:264    .text:0000000000000100 .L0 
     /tmp/ccA6oN5C.s:266    .text:0000000000000100 .L0 
     /tmp/ccA6oN5C.s:268    .text:0000000000000108 .L0 
     /tmp/ccA6oN5C.s:269    .text:0000000000000108 .L0 
     /tmp/ccA6oN5C.s:271    .text:000000000000010c .L0 
     /tmp/ccA6oN5C.s:273    .text:0000000000000110 .L0 
     /tmp/ccA6oN5C.s:279    .text:0000000000000110 _Z15thread_dispatchv
     /tmp/ccA6oN5C.s:282    .text:0000000000000110 .L0 
     /tmp/ccA6oN5C.s:283    .text:0000000000000110 .L0 
     /tmp/ccA6oN5C.s:284    .text:0000000000000114 .L0 
GAS LISTING /tmp/ccA6oN5C.s 			page 21


     /tmp/ccA6oN5C.s:286    .text:0000000000000118 .L0 
     /tmp/ccA6oN5C.s:288    .text:000000000000011c .L0 
     /tmp/ccA6oN5C.s:291    .text:000000000000011c .L0 
     /tmp/ccA6oN5C.s:292    .text:000000000000011c .L0 
     /tmp/ccA6oN5C.s:293    .text:000000000000011c .L0 
     /tmp/ccA6oN5C.s:299    .text:0000000000000124 .L0 
   src/syscall_c.cpp:74     .text:0000000000000124 .L0 
     /tmp/ccA6oN5C.s:305    .text:0000000000000128 .L0 
     /tmp/ccA6oN5C.s:306    .text:000000000000012c .L0 
     /tmp/ccA6oN5C.s:307    .text:000000000000012c .L0 
     /tmp/ccA6oN5C.s:309    .text:0000000000000130 .L0 
     /tmp/ccA6oN5C.s:311    .text:0000000000000134 .L0 
     /tmp/ccA6oN5C.s:317    .text:0000000000000134 _Z11thread_joinP3TCB
     /tmp/ccA6oN5C.s:320    .text:0000000000000134 .L0 
     /tmp/ccA6oN5C.s:322    .text:0000000000000134 .L0 
     /tmp/ccA6oN5C.s:323    .text:0000000000000138 .L0 
     /tmp/ccA6oN5C.s:325    .text:000000000000013c .L0 
     /tmp/ccA6oN5C.s:327    .text:0000000000000140 .L0 
     /tmp/ccA6oN5C.s:330    .text:0000000000000140 .L0 
     /tmp/ccA6oN5C.s:331    .text:0000000000000140 .L0 
   src/syscall_c.cpp:80     .text:0000000000000140 .L0 
     /tmp/ccA6oN5C.s:337    .text:0000000000000144 .L0 
     /tmp/ccA6oN5C.s:339    .text:0000000000000144 .L0 
     /tmp/ccA6oN5C.s:345    .text:000000000000014c .L0 
   src/syscall_c.cpp:83     .text:000000000000014c .L0 
     /tmp/ccA6oN5C.s:351    .text:0000000000000150 .L0 
     /tmp/ccA6oN5C.s:352    .text:0000000000000154 .L0 
     /tmp/ccA6oN5C.s:353    .text:0000000000000154 .L0 
     /tmp/ccA6oN5C.s:355    .text:0000000000000158 .L0 
     /tmp/ccA6oN5C.s:357    .text:000000000000015c .L0 
     /tmp/ccA6oN5C.s:363    .text:000000000000015c _Z13thread_get_idv
     /tmp/ccA6oN5C.s:366    .text:000000000000015c .L0 
     /tmp/ccA6oN5C.s:367    .text:000000000000015c .L0 
     /tmp/ccA6oN5C.s:368    .text:0000000000000160 .L0 
     /tmp/ccA6oN5C.s:370    .text:0000000000000164 .L0 
     /tmp/ccA6oN5C.s:372    .text:0000000000000168 .L0 
     /tmp/ccA6oN5C.s:374    .text:0000000000000168 .L0 
     /tmp/ccA6oN5C.s:376    .text:0000000000000168 .L0 
     /tmp/ccA6oN5C.s:377    .text:0000000000000168 .L0 
     /tmp/ccA6oN5C.s:378    .text:0000000000000168 .L0 
     /tmp/ccA6oN5C.s:384    .text:0000000000000170 .L0 
   src/syscall_c.cpp:92     .text:0000000000000170 .L0 
     /tmp/ccA6oN5C.s:389    .text:0000000000000174 .L0 
   src/syscall_c.cpp:94     .text:0000000000000174 .L0 
     /tmp/ccA6oN5C.s:395    .text:0000000000000178 .L0 
     /tmp/ccA6oN5C.s:397    .text:0000000000000178 .L0 
     /tmp/ccA6oN5C.s:399    .text:0000000000000180 .L0 
     /tmp/ccA6oN5C.s:400    .text:0000000000000180 .L0 
     /tmp/ccA6oN5C.s:402    .text:0000000000000184 .L0 
     /tmp/ccA6oN5C.s:404    .text:0000000000000188 .L0 
     /tmp/ccA6oN5C.s:410    .text:0000000000000188 _Z13setMaxThreadsi
     /tmp/ccA6oN5C.s:413    .text:0000000000000188 .L0 
     /tmp/ccA6oN5C.s:415    .text:0000000000000188 .L0 
     /tmp/ccA6oN5C.s:416    .text:000000000000018c .L0 
     /tmp/ccA6oN5C.s:418    .text:0000000000000190 .L0 
     /tmp/ccA6oN5C.s:420    .text:0000000000000194 .L0 
     /tmp/ccA6oN5C.s:423    .text:0000000000000194 .L0 
GAS LISTING /tmp/ccA6oN5C.s 			page 22


     /tmp/ccA6oN5C.s:424    .text:0000000000000194 .L0 
   src/syscall_c.cpp:101    .text:0000000000000194 .L0 
     /tmp/ccA6oN5C.s:430    .text:0000000000000198 .L0 
     /tmp/ccA6oN5C.s:432    .text:0000000000000198 .L0 
     /tmp/ccA6oN5C.s:438    .text:00000000000001a0 .L0 
   src/syscall_c.cpp:104    .text:00000000000001a0 .L0 
     /tmp/ccA6oN5C.s:444    .text:00000000000001a4 .L0 
     /tmp/ccA6oN5C.s:445    .text:00000000000001a8 .L0 
     /tmp/ccA6oN5C.s:446    .text:00000000000001a8 .L0 
     /tmp/ccA6oN5C.s:448    .text:00000000000001ac .L0 
     /tmp/ccA6oN5C.s:450    .text:00000000000001b0 .L0 
     /tmp/ccA6oN5C.s:456    .text:00000000000001b0 _Z8sem_openPP3SEMj
     /tmp/ccA6oN5C.s:459    .text:00000000000001b0 .L0 
     /tmp/ccA6oN5C.s:461    .text:00000000000001b0 .L0 
     /tmp/ccA6oN5C.s:462    .text:00000000000001b4 .L0 
     /tmp/ccA6oN5C.s:464    .text:00000000000001b8 .L0 
     /tmp/ccA6oN5C.s:466    .text:00000000000001bc .L0 
     /tmp/ccA6oN5C.s:468    .text:00000000000001bc .L0 
     /tmp/ccA6oN5C.s:470    .text:00000000000001bc .L0 
     /tmp/ccA6oN5C.s:471    .text:00000000000001bc .L0 
   src/syscall_c.cpp:113    .text:00000000000001bc .L0 
     /tmp/ccA6oN5C.s:477    .text:00000000000001c0 .L0 
   src/syscall_c.cpp:114    .text:00000000000001c0 .L0 
     /tmp/ccA6oN5C.s:482    .text:00000000000001c4 .L0 
     /tmp/ccA6oN5C.s:484    .text:00000000000001c4 .L0 
     /tmp/ccA6oN5C.s:490    .text:00000000000001cc .L0 
   src/syscall_c.cpp:117    .text:00000000000001cc .L0 
     /tmp/ccA6oN5C.s:495    .text:00000000000001d0 .L0 
   src/syscall_c.cpp:119    .text:00000000000001d0 .L0 
     /tmp/ccA6oN5C.s:501    .text:00000000000001d4 .L0 
     /tmp/ccA6oN5C.s:503    .text:00000000000001d4 .L0 
     /tmp/ccA6oN5C.s:505    .text:00000000000001dc .L0 
     /tmp/ccA6oN5C.s:506    .text:00000000000001dc .L0 
     /tmp/ccA6oN5C.s:508    .text:00000000000001e0 .L0 
     /tmp/ccA6oN5C.s:510    .text:00000000000001e4 .L0 
     /tmp/ccA6oN5C.s:516    .text:00000000000001e4 _Z9sem_closeP3SEM
     /tmp/ccA6oN5C.s:519    .text:00000000000001e4 .L0 
     /tmp/ccA6oN5C.s:521    .text:00000000000001e4 .L0 
     /tmp/ccA6oN5C.s:522    .text:00000000000001e8 .L0 
     /tmp/ccA6oN5C.s:524    .text:00000000000001ec .L0 
     /tmp/ccA6oN5C.s:526    .text:00000000000001f0 .L0 
     /tmp/ccA6oN5C.s:528    .text:00000000000001f0 .L0 
     /tmp/ccA6oN5C.s:530    .text:00000000000001f0 .L0 
     /tmp/ccA6oN5C.s:531    .text:00000000000001f0 .L0 
   src/syscall_c.cpp:127    .text:00000000000001f0 .L0 
     /tmp/ccA6oN5C.s:537    .text:00000000000001f4 .L0 
     /tmp/ccA6oN5C.s:539    .text:00000000000001f4 .L0 
     /tmp/ccA6oN5C.s:545    .text:00000000000001fc .L0 
   src/syscall_c.cpp:130    .text:00000000000001fc .L0 
     /tmp/ccA6oN5C.s:550    .text:0000000000000200 .L0 
   src/syscall_c.cpp:132    .text:0000000000000200 .L0 
     /tmp/ccA6oN5C.s:556    .text:0000000000000204 .L0 
     /tmp/ccA6oN5C.s:558    .text:0000000000000204 .L0 
     /tmp/ccA6oN5C.s:560    .text:000000000000020c .L0 
     /tmp/ccA6oN5C.s:561    .text:000000000000020c .L0 
     /tmp/ccA6oN5C.s:563    .text:0000000000000210 .L0 
     /tmp/ccA6oN5C.s:565    .text:0000000000000214 .L0 
GAS LISTING /tmp/ccA6oN5C.s 			page 23


     /tmp/ccA6oN5C.s:571    .text:0000000000000214 _Z8sem_waitP3SEM
     /tmp/ccA6oN5C.s:574    .text:0000000000000214 .L0 
     /tmp/ccA6oN5C.s:576    .text:0000000000000214 .L0 
     /tmp/ccA6oN5C.s:577    .text:0000000000000218 .L0 
     /tmp/ccA6oN5C.s:579    .text:000000000000021c .L0 
     /tmp/ccA6oN5C.s:581    .text:0000000000000220 .L0 
     /tmp/ccA6oN5C.s:583    .text:0000000000000220 .L0 
     /tmp/ccA6oN5C.s:585    .text:0000000000000220 .L0 
     /tmp/ccA6oN5C.s:586    .text:0000000000000220 .L0 
   src/syscall_c.cpp:140    .text:0000000000000220 .L0 
     /tmp/ccA6oN5C.s:592    .text:0000000000000224 .L0 
     /tmp/ccA6oN5C.s:594    .text:0000000000000224 .L0 
     /tmp/ccA6oN5C.s:600    .text:000000000000022c .L0 
   src/syscall_c.cpp:143    .text:000000000000022c .L0 
     /tmp/ccA6oN5C.s:605    .text:0000000000000230 .L0 
   src/syscall_c.cpp:145    .text:0000000000000230 .L0 
     /tmp/ccA6oN5C.s:611    .text:0000000000000234 .L0 
     /tmp/ccA6oN5C.s:613    .text:0000000000000234 .L0 
     /tmp/ccA6oN5C.s:615    .text:000000000000023c .L0 
     /tmp/ccA6oN5C.s:616    .text:000000000000023c .L0 
     /tmp/ccA6oN5C.s:618    .text:0000000000000240 .L0 
     /tmp/ccA6oN5C.s:620    .text:0000000000000244 .L0 
     /tmp/ccA6oN5C.s:626    .text:0000000000000244 _Z10sem_signalP3SEM
     /tmp/ccA6oN5C.s:629    .text:0000000000000244 .L0 
     /tmp/ccA6oN5C.s:631    .text:0000000000000244 .L0 
     /tmp/ccA6oN5C.s:632    .text:0000000000000248 .L0 
     /tmp/ccA6oN5C.s:634    .text:000000000000024c .L0 
     /tmp/ccA6oN5C.s:636    .text:0000000000000250 .L0 
     /tmp/ccA6oN5C.s:638    .text:0000000000000250 .L0 
     /tmp/ccA6oN5C.s:640    .text:0000000000000250 .L0 
     /tmp/ccA6oN5C.s:641    .text:0000000000000250 .L0 
   src/syscall_c.cpp:153    .text:0000000000000250 .L0 
     /tmp/ccA6oN5C.s:647    .text:0000000000000254 .L0 
     /tmp/ccA6oN5C.s:649    .text:0000000000000254 .L0 
     /tmp/ccA6oN5C.s:655    .text:000000000000025c .L0 
   src/syscall_c.cpp:156    .text:000000000000025c .L0 
     /tmp/ccA6oN5C.s:660    .text:0000000000000260 .L0 
   src/syscall_c.cpp:158    .text:0000000000000260 .L0 
     /tmp/ccA6oN5C.s:666    .text:0000000000000264 .L0 
     /tmp/ccA6oN5C.s:668    .text:0000000000000264 .L0 
     /tmp/ccA6oN5C.s:670    .text:000000000000026c .L0 
     /tmp/ccA6oN5C.s:671    .text:000000000000026c .L0 
     /tmp/ccA6oN5C.s:673    .text:0000000000000270 .L0 
     /tmp/ccA6oN5C.s:675    .text:0000000000000274 .L0 
     /tmp/ccA6oN5C.s:681    .text:0000000000000274 _Z10time_sleepm
     /tmp/ccA6oN5C.s:684    .text:0000000000000274 .L0 
     /tmp/ccA6oN5C.s:685    .text:0000000000000274 .L0 
     /tmp/ccA6oN5C.s:686    .text:0000000000000278 .L0 
     /tmp/ccA6oN5C.s:688    .text:000000000000027c .L0 
     /tmp/ccA6oN5C.s:690    .text:0000000000000280 .L0 
     /tmp/ccA6oN5C.s:692    .text:0000000000000280 .L0 
     /tmp/ccA6oN5C.s:693    .text:0000000000000280 .L0 
   src/syscall_c.cpp:165    .text:0000000000000280 .L0 
     /tmp/ccA6oN5C.s:699    .text:0000000000000284 .L0 
   src/syscall_c.cpp:166    .text:0000000000000284 .L0 
     /tmp/ccA6oN5C.s:704    .text:0000000000000288 .L0 
   src/syscall_c.cpp:167    .text:0000000000000288 .L0 
GAS LISTING /tmp/ccA6oN5C.s 			page 24


     /tmp/ccA6oN5C.s:709    .text:000000000000028c .L0 
   src/syscall_c.cpp:169    .text:000000000000028c .L0 
     /tmp/ccA6oN5C.s:715    .text:0000000000000290 .L0 
     /tmp/ccA6oN5C.s:717    .text:0000000000000290 .L0 
     /tmp/ccA6oN5C.s:719    .text:0000000000000298 .L0 
     /tmp/ccA6oN5C.s:720    .text:0000000000000298 .L0 
     /tmp/ccA6oN5C.s:722    .text:000000000000029c .L0 
     /tmp/ccA6oN5C.s:724    .text:00000000000002a0 .L0 
     /tmp/ccA6oN5C.s:730    .text:00000000000002a0 _Z4putcc
     /tmp/ccA6oN5C.s:733    .text:00000000000002a0 .L0 
     /tmp/ccA6oN5C.s:735    .text:00000000000002a0 .L0 
     /tmp/ccA6oN5C.s:736    .text:00000000000002a4 .L0 
     /tmp/ccA6oN5C.s:738    .text:00000000000002a8 .L0 
     /tmp/ccA6oN5C.s:740    .text:00000000000002ac .L0 
     /tmp/ccA6oN5C.s:743    .text:00000000000002ac .L0 
     /tmp/ccA6oN5C.s:744    .text:00000000000002ac .L0 
   src/syscall_c.cpp:177    .text:00000000000002ac .L0 
     /tmp/ccA6oN5C.s:750    .text:00000000000002b0 .L0 
     /tmp/ccA6oN5C.s:752    .text:00000000000002b0 .L0 
     /tmp/ccA6oN5C.s:758    .text:00000000000002b8 .L0 
   src/syscall_c.cpp:180    .text:00000000000002b8 .L0 
     /tmp/ccA6oN5C.s:764    .text:00000000000002bc .L0 
     /tmp/ccA6oN5C.s:765    .text:00000000000002c0 .L0 
     /tmp/ccA6oN5C.s:766    .text:00000000000002c0 .L0 
     /tmp/ccA6oN5C.s:768    .text:00000000000002c4 .L0 
     /tmp/ccA6oN5C.s:770    .text:00000000000002c8 .L0 
     /tmp/ccA6oN5C.s:776    .text:00000000000002c8 _Z4getcv
     /tmp/ccA6oN5C.s:779    .text:00000000000002c8 .L0 
     /tmp/ccA6oN5C.s:780    .text:00000000000002c8 .L0 
     /tmp/ccA6oN5C.s:781    .text:00000000000002cc .L0 
     /tmp/ccA6oN5C.s:783    .text:00000000000002d0 .L0 
     /tmp/ccA6oN5C.s:785    .text:00000000000002d4 .L0 
     /tmp/ccA6oN5C.s:787    .text:00000000000002d4 .L0 
     /tmp/ccA6oN5C.s:789    .text:00000000000002d4 .L0 
     /tmp/ccA6oN5C.s:790    .text:00000000000002d4 .L0 
     /tmp/ccA6oN5C.s:791    .text:00000000000002d4 .L0 
     /tmp/ccA6oN5C.s:797    .text:00000000000002dc .L0 
   src/syscall_c.cpp:189    .text:00000000000002dc .L0 
     /tmp/ccA6oN5C.s:802    .text:00000000000002e0 .L0 
   src/syscall_c.cpp:191    .text:00000000000002e0 .L0 
     /tmp/ccA6oN5C.s:808    .text:00000000000002e4 .L0 
     /tmp/ccA6oN5C.s:810    .text:00000000000002e4 .L0 
     /tmp/ccA6oN5C.s:812    .text:00000000000002ec .L0 
     /tmp/ccA6oN5C.s:813    .text:00000000000002ec .L0 
     /tmp/ccA6oN5C.s:815    .text:00000000000002f0 .L0 
     /tmp/ccA6oN5C.s:817    .text:00000000000002f4 .L0 
     /tmp/ccA6oN5C.s:823    .text:00000000000002f4 .L0 
     /tmp/ccA6oN5C.s:34     .text:000000000000001c .L2
     /tmp/ccA6oN5C.s:1507   .debug_abbrev:0000000000000000 .Ldebug_abbrev0
     /tmp/ccA6oN5C.s:2204   .debug_str:00000000000002d4 .LASF58
     /tmp/ccA6oN5C.s:2152   .debug_str:000000000000013e .LASF59
     /tmp/ccA6oN5C.s:2218   .debug_str:00000000000003e1 .LASF60
     /tmp/ccA6oN5C.s:5      .text:0000000000000000 .Ltext0
     /tmp/ccA6oN5C.s:820    .text:00000000000002f4 .Letext0
     /tmp/ccA6oN5C.s:2096   .debug_line:0000000000000000 .Ldebug_line0
     /tmp/ccA6oN5C.s:2166   .debug_str:00000000000001a4 .LASF0
     /tmp/ccA6oN5C.s:2172   .debug_str:00000000000001d6 .LASF1
GAS LISTING /tmp/ccA6oN5C.s 			page 25


     /tmp/ccA6oN5C.s:2160   .debug_str:000000000000017e .LASF2
     /tmp/ccA6oN5C.s:2150   .debug_str:0000000000000137 .LASF4
     /tmp/ccA6oN5C.s:2196   .debug_str:000000000000029b .LASF3
     /tmp/ccA6oN5C.s:2112   .debug_str:000000000000004f .LASF5
     /tmp/ccA6oN5C.s:2126   .debug_str:00000000000000ad .LASF6
     /tmp/ccA6oN5C.s:2176   .debug_str:00000000000001fa .LASF7
     /tmp/ccA6oN5C.s:2164   .debug_str:0000000000000191 .LASF8
     /tmp/ccA6oN5C.s:2210   .debug_str:00000000000003b2 .LASF9
     /tmp/ccA6oN5C.s:2140   .debug_str:00000000000000f3 .LASF10
     /tmp/ccA6oN5C.s:2184   .debug_str:0000000000000238 .LASF11
     /tmp/ccA6oN5C.s:2206   .debug_str:0000000000000398 .LASF12
     /tmp/ccA6oN5C.s:2114   .debug_str:0000000000000056 .LASF13
     /tmp/ccA6oN5C.s:2102   .debug_str:000000000000001c .LASF14
     /tmp/ccA6oN5C.s:2116   .debug_str:0000000000000066 .LASF15
     /tmp/ccA6oN5C.s:2192   .debug_str:000000000000027a .LASF16
     /tmp/ccA6oN5C.s:2122   .debug_str:0000000000000089 .LASF17
     /tmp/ccA6oN5C.s:2098   .debug_str:0000000000000000 .LASF18
     /tmp/ccA6oN5C.s:2130   .debug_str:00000000000000bd .LASF19
     /tmp/ccA6oN5C.s:2104   .debug_str:000000000000002c .LASF22
     /tmp/ccA6oN5C.s:2108   .debug_str:000000000000003d .LASF24
     /tmp/ccA6oN5C.s:777    .text:00000000000002c8 .LFB30
     /tmp/ccA6oN5C.s:818    .text:00000000000002f4 .LFE30
     /tmp/ccA6oN5C.s:2216   .debug_str:00000000000003da .LASF20
     /tmp/ccA6oN5C.s:2178   .debug_str:000000000000020d .LASF21
     /tmp/ccA6oN5C.s:2162   .debug_str:000000000000018c .LASF36
     /tmp/ccA6oN5C.s:2134   .debug_str:00000000000000cc .LASF38
     /tmp/ccA6oN5C.s:731    .text:00000000000002a0 .LFB29
     /tmp/ccA6oN5C.s:771    .text:00000000000002c8 .LFE29
     /tmp/ccA6oN5C.s:2194   .debug_str:0000000000000290 .LASF23
     /tmp/ccA6oN5C.s:2188   .debug_str:000000000000025c .LASF25
     /tmp/ccA6oN5C.s:682    .text:0000000000000274 .LFB28
     /tmp/ccA6oN5C.s:725    .text:00000000000002a0 .LFE28
     /tmp/ccA6oN5C.s:2208   .debug_str:00000000000003a7 .LASF26
     /tmp/ccA6oN5C.s:2198   .debug_str:00000000000002ad .LASF27
     /tmp/ccA6oN5C.s:627    .text:0000000000000244 .LFB27
     /tmp/ccA6oN5C.s:676    .text:0000000000000274 .LFE27
     /tmp/ccA6oN5C.s:1917   .debug_loc:0000000000000000 .LLST10
     /tmp/ccA6oN5C.s:2118   .debug_str:0000000000000072 .LASF28
     /tmp/ccA6oN5C.s:2154   .debug_str:0000000000000150 .LASF29
     /tmp/ccA6oN5C.s:572    .text:0000000000000214 .LFB26
     /tmp/ccA6oN5C.s:621    .text:0000000000000244 .LFE26
     /tmp/ccA6oN5C.s:1931   .debug_loc:0000000000000039 .LLST9
     /tmp/ccA6oN5C.s:2156   .debug_str:0000000000000161 .LASF30
     /tmp/ccA6oN5C.s:2168   .debug_str:00000000000001b1 .LASF31
     /tmp/ccA6oN5C.s:517    .text:00000000000001e4 .LFB25
     /tmp/ccA6oN5C.s:566    .text:0000000000000214 .LFE25
     /tmp/ccA6oN5C.s:2200   .debug_str:00000000000002c1 .LASF32
     /tmp/ccA6oN5C.s:1945   .debug_loc:0000000000000072 .LLST8
     /tmp/ccA6oN5C.s:2132   .debug_str:00000000000000c3 .LASF33
     /tmp/ccA6oN5C.s:2158   .debug_str:000000000000016b .LASF34
     /tmp/ccA6oN5C.s:457    .text:00000000000001b0 .LFB24
     /tmp/ccA6oN5C.s:511    .text:00000000000001e4 .LFE24
     /tmp/ccA6oN5C.s:1959   .debug_loc:00000000000000ab .LLST7
     /tmp/ccA6oN5C.s:2180   .debug_str:0000000000000212 .LASF35
     /tmp/ccA6oN5C.s:2144   .debug_str:0000000000000116 .LASF37
     /tmp/ccA6oN5C.s:2100   .debug_str:0000000000000009 .LASF39
     /tmp/ccA6oN5C.s:411    .text:0000000000000188 .LFB23
GAS LISTING /tmp/ccA6oN5C.s 			page 26


     /tmp/ccA6oN5C.s:451    .text:00000000000001b0 .LFE23
     /tmp/ccA6oN5C.s:2146   .debug_str:0000000000000124 .LASF40
     /tmp/ccA6oN5C.s:2136   .debug_str:00000000000000d5 .LASF41
     /tmp/ccA6oN5C.s:2170   .debug_str:00000000000001c3 .LASF42
     /tmp/ccA6oN5C.s:364    .text:000000000000015c .LFB22
     /tmp/ccA6oN5C.s:405    .text:0000000000000188 .LFE22
     /tmp/ccA6oN5C.s:2202   .debug_str:00000000000002c8 .LASF43
     /tmp/ccA6oN5C.s:2142   .debug_str:0000000000000101 .LASF44
     /tmp/ccA6oN5C.s:318    .text:0000000000000134 .LFB21
     /tmp/ccA6oN5C.s:358    .text:000000000000015c .LFE21
     /tmp/ccA6oN5C.s:2138   .debug_str:00000000000000e3 .LASF45
     /tmp/ccA6oN5C.s:2186   .debug_str:0000000000000247 .LASF46
     /tmp/ccA6oN5C.s:280    .text:0000000000000110 .LFB20
     /tmp/ccA6oN5C.s:312    .text:0000000000000134 .LFE20
     /tmp/ccA6oN5C.s:2106   .debug_str:0000000000000031 .LASF47
     /tmp/ccA6oN5C.s:2174   .debug_str:00000000000001e9 .LASF48
     /tmp/ccA6oN5C.s:233    .text:00000000000000e4 .LFB19
     /tmp/ccA6oN5C.s:274    .text:0000000000000110 .LFE19
     /tmp/ccA6oN5C.s:2124   .debug_str:000000000000009f .LASF49
     /tmp/ccA6oN5C.s:2182   .debug_str:0000000000000217 .LASF50
     /tmp/ccA6oN5C.s:135    .text:0000000000000070 .LFB18
     /tmp/ccA6oN5C.s:227    .text:00000000000000e4 .LFE18
     /tmp/ccA6oN5C.s:1973   .debug_loc:00000000000000e4 .LLST3
     /tmp/ccA6oN5C.s:2190   .debug_str:000000000000026c .LASF51
     /tmp/ccA6oN5C.s:1991   .debug_loc:0000000000000130 .LLST4
     /tmp/ccA6oN5C.s:2009   .debug_loc:000000000000017c .LLST5
     /tmp/ccA6oN5C.s:2148   .debug_str:0000000000000131 .LASF52
     /tmp/ccA6oN5C.s:2027   .debug_loc:00000000000001c8 .LLST6
     /tmp/ccA6oN5C.s:164    .text:00000000000000a4 .LVL12
     /tmp/ccA6oN5C.s:2128   .debug_str:00000000000000b4 .LASF53
     /tmp/ccA6oN5C.s:2214   .debug_str:00000000000003cc .LASF54
     /tmp/ccA6oN5C.s:80     .text:0000000000000040 .LFB17
     /tmp/ccA6oN5C.s:129    .text:0000000000000070 .LFE17
     /tmp/ccA6oN5C.s:2034   .debug_loc:00000000000001eb .LLST2
     /tmp/ccA6oN5C.s:2212   .debug_str:00000000000003c2 .LASF55
     /tmp/ccA6oN5C.s:2120   .debug_str:000000000000007b .LASF56
     /tmp/ccA6oN5C.s:10     .text:0000000000000000 .LFB16
     /tmp/ccA6oN5C.s:74     .text:0000000000000040 .LFE16
     /tmp/ccA6oN5C.s:2110   .debug_str:0000000000000046 .LASF57
     /tmp/ccA6oN5C.s:2048   .debug_loc:0000000000000224 .LLST0
     /tmp/ccA6oN5C.s:2066   .debug_loc:0000000000000270 .LLST1
     /tmp/ccA6oN5C.s:630    .text:0000000000000244 .LVL35
     /tmp/ccA6oN5C.s:664    .text:0000000000000264 .LVL37
     /tmp/ccA6oN5C.s:575    .text:0000000000000214 .LVL32
     /tmp/ccA6oN5C.s:609    .text:0000000000000234 .LVL34
     /tmp/ccA6oN5C.s:520    .text:00000000000001e4 .LVL29
     /tmp/ccA6oN5C.s:554    .text:0000000000000204 .LVL31
     /tmp/ccA6oN5C.s:460    .text:00000000000001b0 .LVL26
     /tmp/ccA6oN5C.s:499    .text:00000000000001d4 .LVL28
     /tmp/ccA6oN5C.s:138    .text:0000000000000070 .LVL9
     /tmp/ccA6oN5C.s:162    .text:000000000000009c .LVL11
     /tmp/ccA6oN5C.s:216    .text:00000000000000d4 .LVL14
     /tmp/ccA6oN5C.s:219    .text:00000000000000d8 .LVL15
     /tmp/ccA6oN5C.s:222    .text:00000000000000dc .LVL16
     /tmp/ccA6oN5C.s:204    .text:00000000000000c4 .LVL13
     /tmp/ccA6oN5C.s:83     .text:0000000000000040 .LVL6
     /tmp/ccA6oN5C.s:117    .text:0000000000000060 .LVL8
GAS LISTING /tmp/ccA6oN5C.s 			page 27


     /tmp/ccA6oN5C.s:14     .text:0000000000000000 .LVL0
     /tmp/ccA6oN5C.s:29     .text:0000000000000014 .LVL2
     /tmp/ccA6oN5C.s:37     .text:0000000000000020 .LVL4
     /tmp/ccA6oN5C.s:63     .text:0000000000000034 .LVL5
     /tmp/ccA6oN5C.s:25     .text:0000000000000010 .LVL1
     /tmp/ccA6oN5C.s:33     .text:000000000000001c .LVL3
     /tmp/ccA6oN5C.s:824    .debug_info:0000000000000000 .Ldebug_info0

NO UNDEFINED SYMBOLS
