GAS LISTING /tmp/cciLBqOJ.s 			page 1


   1              		.file	"tcb.cpp"
   2              		.option pic
   3              		.option norelax
   4              		.text
   5              	.Ltext0:
   6              		.align	2
   7              		.globl	_ZN3TCB13setMaxThreadsEi
   9              	_ZN3TCB13setMaxThreadsEi:
  10              	.LFB49:
  11              		.file 1 "src/tcb.cpp"
   1:src/tcb.cpp   **** #include "../h/tcb.h"
   2:src/tcb.cpp   **** #include "../h/riscv.h"
   3:src/tcb.cpp   **** 
   4:src/tcb.cpp   **** TCB *TCB::running = nullptr;
   5:src/tcb.cpp   **** int TCB::maxThreadId = 0;
   6:src/tcb.cpp   **** int TCB::maxThreads = 0;
   7:src/tcb.cpp   **** List<TCB> *TCB::blocked = nullptr;
   8:src/tcb.cpp   **** 
   9:src/tcb.cpp   **** void TCB::setMaxThreads(int numOfThreads){
  12              		.loc 1 9 42
  13              		.cfi_startproc
  14              	.LVL0:
  15 0000 130101FF 		addi	sp,sp,-16
  16              		.cfi_def_cfa_offset 16
  17 0004 23348100 		sd	s0,8(sp)
  18              		.cfi_offset 8, -8
  19 0008 13040101 		addi	s0,sp,16
  20              		.cfi_def_cfa 8, 0
  10:src/tcb.cpp   ****     maxThreads = numOfThreads;
  21              		.loc 1 10 5
  22              		.loc 1 10 16 is_stmt 0
  23 000c 97070000 		sw	a0,.LANCHOR0,a5
  23      23A0A700 
  11:src/tcb.cpp   **** }
  24              		.loc 1 11 1
  25 0014 03348100 		ld	s0,8(sp)
  26              		.cfi_restore 8
  27              		.cfi_def_cfa 2, 16
  28 0018 13010101 		addi	sp,sp,16
  29              		.cfi_def_cfa_offset 0
  30 001c 67800000 		jr	ra
  31              		.cfi_endproc
  32              	.LFE49:
  34              		.align	2
  35              		.globl	_ZN3TCB4pingEPS_
  37              	_ZN3TCB4pingEPS_:
  38              	.LFB51:
  12:src/tcb.cpp   **** 
  13:src/tcb.cpp   **** int TCB::getThreadId() {
  14:src/tcb.cpp   ****     TCB::dispatch();
  15:src/tcb.cpp   ****     return threadId;
  16:src/tcb.cpp   **** }
  17:src/tcb.cpp   **** 
  18:src/tcb.cpp   **** void TCB::ping(thread_t handle){
  39              		.loc 1 18 32 is_stmt 1
  40              		.cfi_startproc
  41              	.LVL1:
GAS LISTING /tmp/cciLBqOJ.s 			page 2


  42 0020 130101FF 		addi	sp,sp,-16
  43              		.cfi_def_cfa_offset 16
  44 0024 23348100 		sd	s0,8(sp)
  45              		.cfi_offset 8, -8
  46 0028 13040101 		addi	s0,sp,16
  47              		.cfi_def_cfa 8, 0
  19:src/tcb.cpp   ****     handle->setPing(true);
  48              		.loc 1 19 5
  49              	.LVL2:
  50              	.LBB30:
  51              	.LBB31:
  52              		.file 2 "src/../h/tcb.h"
   1:src/../h/tcb.h **** #ifndef _TCB
   2:src/../h/tcb.h **** #define _TCB
   3:src/../h/tcb.h **** 
   4:src/../h/tcb.h **** #include "../lib/hw.h"
   5:src/../h/tcb.h **** #include "../lib/mem.h"
   6:src/../h/tcb.h **** #include "../h/mem.h"
   7:src/../h/tcb.h **** #include "../h/list.h"
   8:src/../h/tcb.h **** #include "scheduler.h"
   9:src/../h/tcb.h **** #include "../h/syscall_c.h"
  10:src/../h/tcb.h **** 
  11:src/../h/tcb.h **** class TCB{
  12:src/../h/tcb.h **** public:
  13:src/../h/tcb.h **** 
  14:src/../h/tcb.h ****     static TCB *running;
  15:src/../h/tcb.h ****     List<TCB> *suspended;
  16:src/../h/tcb.h ****     static List<TCB> *blocked;
  17:src/../h/tcb.h ****     using Body = void (*)(void*);
  18:src/../h/tcb.h **** 
  19:src/../h/tcb.h ****     struct Context
  20:src/../h/tcb.h ****     {
  21:src/../h/tcb.h ****         uint64 ra;
  22:src/../h/tcb.h ****         uint64 sp;
  23:src/../h/tcb.h ****     };
  24:src/../h/tcb.h **** 
  25:src/../h/tcb.h ****     Context context;
  26:src/../h/tcb.h **** 
  27:src/../h/tcb.h ****     void *operator new(size_t n){
  28:src/../h/tcb.h **** //        return __mem_alloc(n);
  29:src/../h/tcb.h **** //        return mem_alloc(n + sizeof(MEM::FullSpace));
  30:src/../h/tcb.h ****         return MEM::memAlloc(n + sizeof(MEM::FullSpace));
  31:src/../h/tcb.h ****     }
  32:src/../h/tcb.h ****     void *operator new[](size_t n){
  33:src/../h/tcb.h ****         //        return __mem_alloc(n);
  34:src/../h/tcb.h **** //        return mem_alloc(n + sizeof(MEM::FullSpace));
  35:src/../h/tcb.h ****         return MEM::memAlloc(n + sizeof(MEM::FullSpace));
  36:src/../h/tcb.h ****     }
  37:src/../h/tcb.h ****     void operator delete(void *p) noexcept{
  38:src/../h/tcb.h **** //        mem_free(p);
  39:src/../h/tcb.h ****         MEM::memFree(p);
  40:src/../h/tcb.h ****     }
  41:src/../h/tcb.h ****     void operator delete[](void *p) noexcept{
  42:src/../h/tcb.h **** //        mem_free(p);
  43:src/../h/tcb.h ****         MEM::memFree(p);
  44:src/../h/tcb.h ****     }
  45:src/../h/tcb.h ****     ~TCB() { delete[] stack; }
GAS LISTING /tmp/cciLBqOJ.s 			page 3


  46:src/../h/tcb.h **** 
  47:src/../h/tcb.h ****     bool isFinished() const { return finished; }
  48:src/../h/tcb.h ****     void setFinished(bool value) {
  49:src/../h/tcb.h ****             this->finished = value;
  50:src/../h/tcb.h ****     }
  51:src/../h/tcb.h ****     Context getContext() const { return context; }
  52:src/../h/tcb.h ****     void setContext(Context context) { this->context = context; }
  53:src/../h/tcb.h ****     bool getHasChildren() const { return hasChildren; }
  54:src/../h/tcb.h ****     void setHasChildren(bool value) { hasChildren = value; }
  55:src/../h/tcb.h ****     TCB *getParent() const { return parent;}
  56:src/../h/tcb.h ****     void setParent(TCB *parent) {this->parent = parent; }
  57:src/../h/tcb.h ****     int getThreadId();
  58:src/../h/tcb.h ****     void setPing(bool ping) { this->pinged = ping;}
  53              		.loc 2 58 31
  54              		.loc 2 58 44 is_stmt 0
  55 002c 93071000 		li	a5,1
  56 0030 2382F504 		sb	a5,68(a1)
  57              	.LVL3:
  58              	.LBE31:
  59              	.LBE30:
  20:src/tcb.cpp   **** }
  60              		.loc 1 20 1
  61 0034 03348100 		ld	s0,8(sp)
  62              		.cfi_restore 8
  63              		.cfi_def_cfa 2, 16
  64 0038 13010101 		addi	sp,sp,16
  65              		.cfi_def_cfa_offset 0
  66 003c 67800000 		jr	ra
  67              		.cfi_endproc
  68              	.LFE51:
  70              		.align	2
  71              		.globl	_ZN3TCB12createThreadEPFvPvES0_Pm
  73              	_ZN3TCB12createThreadEPFvPvES0_Pm:
  74              	.LFB53:
  21:src/tcb.cpp   **** 
  22:src/tcb.cpp   **** //jos samo implementirati sistemski poziv za ping
  23:src/tcb.cpp   **** void TCB::threadWrapper(){
  24:src/tcb.cpp   **** 
  25:src/tcb.cpp   ****     Riscv::popSppSpie();
  26:src/tcb.cpp   ****     running->body(running->arg);
  27:src/tcb.cpp   ****     if(TCB::running->pinged){
  28:src/tcb.cpp   ****         int id = TCB::running->getThreadId();
  29:src/tcb.cpp   ****         printString("Id ping-ovane niti je: ");
  30:src/tcb.cpp   ****         printInt(id);
  31:src/tcb.cpp   ****         printString("\n");
  32:src/tcb.cpp   ****     }
  33:src/tcb.cpp   ****     thread_exit();
  34:src/tcb.cpp   **** }
  35:src/tcb.cpp   **** 
  36:src/tcb.cpp   **** TCB* TCB::createThread(Body body, void* arg, uint64* stack){
  75              		.loc 1 36 60 is_stmt 1
  76              		.cfi_startproc
  77              		.cfi_personality 0x9b,DW.ref.__gxx_personality_v0
  78              		.cfi_lsda 0x1b,.LLSDA53
  79              	.LVL4:
  80 0040 130101FD 		addi	sp,sp,-48
  81              		.cfi_def_cfa_offset 48
GAS LISTING /tmp/cciLBqOJ.s 			page 4


  82 0044 23341102 		sd	ra,40(sp)
  83 0048 23308102 		sd	s0,32(sp)
  84 004c 233C9100 		sd	s1,24(sp)
  85 0050 23382101 		sd	s2,16(sp)
  86 0054 23343101 		sd	s3,8(sp)
  87 0058 23304101 		sd	s4,0(sp)
  88              		.cfi_offset 1, -8
  89              		.cfi_offset 8, -16
  90              		.cfi_offset 9, -24
  91              		.cfi_offset 18, -32
  92              		.cfi_offset 19, -40
  93              		.cfi_offset 20, -48
  94 005c 13040103 		addi	s0,sp,48
  95              		.cfi_def_cfa 8, 0
  96 0060 130A0500 		mv	s4,a0
  97 0064 93890500 		mv	s3,a1
  98 0068 13090600 		mv	s2,a2
  37:src/tcb.cpp   ****     return new TCB(body, arg, stack);
  99              		.loc 1 37 5
 100              	.LVL5:
 101              	.LBB45:
 102              	.LBB46:
  30:src/../h/tcb.h ****     }
 103              		.loc 2 30 9
  30:src/../h/tcb.h ****     }
 104              		.loc 2 30 29 is_stmt 0
 105 006c 13050006 		li	a0,96
 106              	.LVL6:
 107              	.LEHB0:
 108 0070 97000000 		call	_ZN3MEM8memAllocEm@plt
 108      E7800000 
 109              	.LVL7:
 110              	.LEHE0:
 111 0078 93040500 		mv	s1,a0
 112              	.LVL8:
 113              	.LBE46:
 114              	.LBE45:
 115              	.LBB47:
 116              	.LBB48:
  59:src/../h/tcb.h ****     bool isPinged() { return this->pinged;}
  60:src/../h/tcb.h ****     void ping(thread_t handle);
  61:src/../h/tcb.h ****     static void setMaxThreads(int numOfThreads = 5);
  62:src/../h/tcb.h **** 
  63:src/../h/tcb.h ****     static void contextSwitch(Context *oldContext, Context *runningContext);
  64:src/../h/tcb.h **** 
  65:src/../h/tcb.h ****     static TCB *createThread(Body body, void* arg, uint64* stack);
  66:src/../h/tcb.h ****     static int threadExit();
  67:src/../h/tcb.h ****     static void threadJoin(thread_t handle);
  68:src/../h/tcb.h **** 
  69:src/../h/tcb.h **** private:
  70:src/../h/tcb.h **** 
  71:src/../h/tcb.h ****     friend class Riscv;
  72:src/../h/tcb.h **** 
  73:src/../h/tcb.h ****     Body body;
  74:src/../h/tcb.h ****     void* arg;
  75:src/../h/tcb.h ****     uint64 *stack;
  76:src/../h/tcb.h ****     bool finished;
GAS LISTING /tmp/cciLBqOJ.s 			page 5


  77:src/../h/tcb.h ****     bool hasChildren;
  78:src/../h/tcb.h ****     TCB *parent;
  79:src/../h/tcb.h ****     int threadId;
  80:src/../h/tcb.h ****     static int maxThreadId;
  81:src/../h/tcb.h ****     bool pinged;
  82:src/../h/tcb.h ****     static int maxThreads;
  83:src/../h/tcb.h **** 
  84:src/../h/tcb.h ****     TCB(Body body, void* arg, uint64* stack){
  85:src/../h/tcb.h ****         this->body = body;
 117              		.loc 2 85 9 is_stmt 1
 118              		.loc 2 85 20 is_stmt 0
 119 007c 233C4501 		sd	s4,24(a0)
  86:src/../h/tcb.h ****         this->arg = arg;
 120              		.loc 2 86 9 is_stmt 1
 121              		.loc 2 86 19 is_stmt 0
 122 0080 23303503 		sd	s3,32(a0)
  87:src/../h/tcb.h ****         this->stack = stack;
 123              		.loc 2 87 9 is_stmt 1
 124              		.loc 2 87 21 is_stmt 0
 125 0084 23342503 		sd	s2,40(a0)
  88:src/../h/tcb.h ****         context.ra = (uint64) &threadWrapper;
 126              		.loc 2 88 9 is_stmt 1
 127              		.loc 2 88 20 is_stmt 0
 128 0088 97070000 		lla	a5,_ZN3TCB13threadWrapperEv
 128      93870700 
 129 0090 2334F500 		sd	a5,8(a0)
  89:src/../h/tcb.h ****         context.sp = (stack != nullptr ? (uint64) &stack[DEFAULT_STACK_SIZE / sizeof(uint64)] : 0);
 130              		.loc 2 89 9 is_stmt 1
 131              		.loc 2 89 40 is_stmt 0
 132 0094 63060902 		beqz	s2,.L9
 133              		.loc 2 89 51
 134 0098 37160000 		li	a2,4096
 135 009c 3309C900 		add	s2,s2,a2
 136              	.LVL9:
 137              	.L6:
 138              		.loc 2 89 20
 139 00a0 23B82401 		sd	s2,16(s1)
  90:src/../h/tcb.h ****         finished = false;
 140              		.loc 2 90 9 is_stmt 1
 141              		.loc 2 90 18 is_stmt 0
 142 00a4 23880402 		sb	zero,48(s1)
  91:src/../h/tcb.h ****         hasChildren = false;
 143              		.loc 2 91 9 is_stmt 1
 144              		.loc 2 91 21 is_stmt 0
 145 00a8 A3880402 		sb	zero,49(s1)
  92:src/../h/tcb.h ****         parent = nullptr;
 146              		.loc 2 92 9 is_stmt 1
 147              		.loc 2 92 16 is_stmt 0
 148 00ac 23BC0402 		sd	zero,56(s1)
  93:src/../h/tcb.h ****         suspended = new List<TCB>();
 149              		.loc 2 93 9 is_stmt 1
 150              		.loc 2 93 35 is_stmt 0
 151 00b0 13058001 		li	a0,24
 152              	.LEHB1:
 153 00b4 97000000 		call	_Znwm@plt
 153      E7800000 
 154              	.LVL10:
GAS LISTING /tmp/cciLBqOJ.s 			page 6


 155 00bc 6F00C000 		j	.L13
 156              	.LVL11:
 157              	.L9:
  89:src/../h/tcb.h ****         finished = false;
 158              		.loc 2 89 40
 159 00c0 13090000 		li	s2,0
 160              	.LVL12:
 161 00c4 6FF0DFFD 		j	.L6
 162              	.LVL13:
 163              	.L13:
 164              	.LBB49:
 165              	.LBB50:
 166              		.file 3 "src/../h/../h/list.h"
   1:src/../h/../h/list.h **** #ifndef LIST
   2:src/../h/../h/list.h **** #define LIST
   3:src/../h/../h/list.h **** 
   4:src/../h/../h/list.h **** //lista je preuzeta sa 7ih vezbi
   5:src/../h/../h/list.h **** //stim da je dodat i size
   6:src/../h/../h/list.h **** 
   7:src/../h/../h/list.h **** template<typename T>
   8:src/../h/../h/list.h **** class List
   9:src/../h/../h/list.h **** {
  10:src/../h/../h/list.h **** private:
  11:src/../h/../h/list.h ****     struct Elem
  12:src/../h/../h/list.h ****     {
  13:src/../h/../h/list.h ****         T *data;
  14:src/../h/../h/list.h ****         Elem *next;
  15:src/../h/../h/list.h **** 
  16:src/../h/../h/list.h ****         Elem(T *data, Elem *next) : data(data), next(next) {}
  17:src/../h/../h/list.h ****     };
  18:src/../h/../h/list.h **** 
  19:src/../h/../h/list.h ****     Elem *head, *tail;
  20:src/../h/../h/list.h ****     int size;
  21:src/../h/../h/list.h **** 
  22:src/../h/../h/list.h **** public:
  23:src/../h/../h/list.h ****     List() : head(0), tail(0), size(0) {}
 167              		.loc 3 23 38
 168 00c8 23300500 		sd	zero,0(a0)
 169 00cc 23340500 		sd	zero,8(a0)
 170 00d0 23280500 		sw	zero,16(a0)
 171              	.LVL14:
 172              	.LBE50:
 173              	.LBE49:
 174              		.loc 2 93 19
 175 00d4 23B0A400 		sd	a0,0(s1)
  94:src/../h/tcb.h ****         if(threadId == 0) {
 176              		.loc 2 94 9 is_stmt 1
 177              		.loc 2 94 12 is_stmt 0
 178 00d8 83A70404 		lw	a5,64(s1)
 179              		.loc 2 94 9
 180 00dc 63820704 		beqz	a5,.L14
 181              	.L7:
  95:src/../h/tcb.h ****             blocked = new List<TCB>();
  96:src/../h/tcb.h ****         }
  97:src/../h/tcb.h ****         threadId = maxThreadId;
 182              		.loc 2 97 9 is_stmt 1
 183              		.loc 2 97 18 is_stmt 0
GAS LISTING /tmp/cciLBqOJ.s 			page 7


 184 00e0 17070000 		lla	a4,.LANCHOR0
 184      13070700 
 185 00e8 83270701 		lw	a5,16(a4)
 186 00ec 23A0F404 		sw	a5,64(s1)
  98:src/../h/tcb.h ****         maxThreadId++;
 187              		.loc 2 98 9 is_stmt 1
 188              		.loc 2 98 20 is_stmt 0
 189 00f0 9B871700 		addiw	a5,a5,1
 190 00f4 2328F700 		sw	a5,16(a4)
  99:src/../h/tcb.h ****         pinged = false;
 191              		.loc 2 99 9 is_stmt 1
 192              		.loc 2 99 16 is_stmt 0
 193 00f8 23820404 		sb	zero,68(s1)
 194              	.LVL15:
 195              	.LBE48:
 196              	.LBE47:
  38:src/tcb.cpp   **** }
 197              		.loc 1 38 1
 198 00fc 13850400 		mv	a0,s1
 199 0100 83308102 		ld	ra,40(sp)
 200              		.cfi_remember_state
 201              		.cfi_restore 1
 202 0104 03340102 		ld	s0,32(sp)
 203              		.cfi_restore 8
 204              		.cfi_def_cfa 2, 48
 205 0108 83348101 		ld	s1,24(sp)
 206              		.cfi_restore 9
 207 010c 03390101 		ld	s2,16(sp)
 208              		.cfi_restore 18
 209 0110 83398100 		ld	s3,8(sp)
 210              		.cfi_restore 19
 211              	.LVL16:
 212 0114 033A0100 		ld	s4,0(sp)
 213              		.cfi_restore 20
 214              	.LVL17:
 215 0118 13010103 		addi	sp,sp,48
 216              		.cfi_def_cfa_offset 0
 217 011c 67800000 		jr	ra
 218              	.LVL18:
 219              	.L14:
 220              		.cfi_restore_state
 221              	.LBB54:
 222              	.LBB53:
  95:src/../h/tcb.h ****         }
 223              		.loc 2 95 13 is_stmt 1
  95:src/../h/tcb.h ****         }
 224              		.loc 2 95 37 is_stmt 0
 225 0120 13058001 		li	a0,24
 226 0124 97000000 		call	_Znwm@plt
 226      E7800000 
 227              	.LVL19:
 228              	.LEHE1:
 229              	.LBB51:
 230              	.LBB52:
 231              		.loc 3 23 38
 232 012c 23300500 		sd	zero,0(a0)
 233 0130 23340500 		sd	zero,8(a0)
GAS LISTING /tmp/cciLBqOJ.s 			page 8


 234 0134 23280500 		sw	zero,16(a0)
 235              	.LVL20:
 236              	.LBE52:
 237              	.LBE51:
  95:src/../h/tcb.h ****         }
 238              		.loc 2 95 21
 239 0138 97070000 		sd	a0,.LANCHOR0+8,a5
 239      23B0A700 
 240 0140 6FF01FFA 		j	.L7
 241              	.L10:
 242 0144 13090500 		mv	s2,a0
 243              	.LVL21:
 244              	.LBE53:
 245              	.LBE54:
 246              	.LBB55:
 247              	.LBB56:
  39:src/../h/tcb.h ****     }
 248              		.loc 2 39 9 is_stmt 1
  39:src/../h/tcb.h ****     }
 249              		.loc 2 39 21 is_stmt 0
 250 0148 13850400 		mv	a0,s1
 251 014c 97000000 		call	_ZN3MEM7memFreeEPv@plt
 251      E7800000 
 252              	.LVL22:
 253 0154 13050900 		mv	a0,s2
 254              	.LEHB2:
 255 0158 97000000 		call	_Unwind_Resume@plt
 255      E7800000 
 256              	.LVL23:
 257              	.LEHE2:
 258              	.LBE56:
 259              	.LBE55:
 260              		.cfi_endproc
 261              	.LFE53:
 262              		.globl	__gxx_personality_v0
 263              		.section	.gcc_except_table,"a",@progbits
 264              	.LLSDA53:
 265 0000 FF       		.byte	0xff
 266 0001 FF       		.byte	0xff
 267 0002 03       		.byte	0x3
 268 0003 27       		.byte	0x27
 269 0004 00000000 		.4byte	.LEHB0-.LFB53
 270 0008 00000000 		.4byte	.LEHE0-.LEHB0
 271 000c 00000000 		.4byte	0
 272 0010 00       		.byte	0
 273 0011 00000000 		.4byte	.LEHB1-.LFB53
 274 0015 00000000 		.4byte	.LEHE1-.LEHB1
 275 0019 00000000 		.4byte	.L10-.LFB53
 276 001d 00       		.byte	0
 277 001e 00000000 		.4byte	.LEHB2-.LFB53
 278 0022 00000000 		.4byte	.LEHE2-.LEHB2
 279 0026 00000000 		.4byte	0
 280 002a 00       		.byte	0
 281              		.text
 283              		.align	2
 284              		.globl	_ZN3TCB8dispatchEv
 286              	_ZN3TCB8dispatchEv:
GAS LISTING /tmp/cciLBqOJ.s 			page 9


 287              	.LFB55:
  39:src/tcb.cpp   **** 
  40:src/tcb.cpp   **** int TCB::threadExit(){
  41:src/tcb.cpp   **** 
  42:src/tcb.cpp   ****     if (TCB::running == nullptr ) return -1;
  43:src/tcb.cpp   ****     running->setFinished(true);
  44:src/tcb.cpp   ****     //za vracanje nazad svih niti koje su bile pre suspendovane za semafor koji je radio nad ovom n
  45:src/tcb.cpp   ****     while(running->suspended->getSize()) {
  46:src/tcb.cpp   ****         Scheduler::put(running->suspended->removeFirst());
  47:src/tcb.cpp   ****     }
  48:src/tcb.cpp   ****     if(blocked->getSize() != 0 && Scheduler::getSchSize() < (TCB::maxThreads)){
  49:src/tcb.cpp   ****         Scheduler::put(blocked->removeFirst());
  50:src/tcb.cpp   ****     }
  51:src/tcb.cpp   **** 
  52:src/tcb.cpp   ****     TCB::dispatch();
  53:src/tcb.cpp   **** 
  54:src/tcb.cpp   ****     return 0;
  55:src/tcb.cpp   **** }
  56:src/tcb.cpp   **** 
  57:src/tcb.cpp   **** void TCB::dispatch(){
 288              		.loc 1 57 21 is_stmt 1
 289              		.cfi_startproc
 290 0160 130101FE 		addi	sp,sp,-32
 291              		.cfi_def_cfa_offset 32
 292 0164 233C1100 		sd	ra,24(sp)
 293 0168 23388100 		sd	s0,16(sp)
 294 016c 23349100 		sd	s1,8(sp)
 295              		.cfi_offset 1, -8
 296              		.cfi_offset 8, -16
 297              		.cfi_offset 9, -24
 298 0170 13040102 		addi	s0,sp,32
 299              		.cfi_def_cfa 8, 0
  58:src/tcb.cpp   **** 
  59:src/tcb.cpp   ****     TCB *old = running;
 300              		.loc 1 59 5
 301              		.loc 1 59 10 is_stmt 0
 302 0174 97040000 		ld	s1,.LANCHOR0+24
 302      83B40400 
 303              	.LVL24:
  60:src/tcb.cpp   ****     if (!old->isFinished()) { Scheduler::put(old); }
 304              		.loc 1 60 5 is_stmt 1
 305              	.LBB57:
 306              	.LBB58:
  47:src/../h/tcb.h ****     void setFinished(bool value) {
 307              		.loc 2 47 31
  47:src/../h/tcb.h ****     void setFinished(bool value) {
 308              		.loc 2 47 38 is_stmt 0
 309 017c 83C70403 		lbu	a5,48(s1)
 310              	.LVL25:
 311              	.LBE58:
 312              	.LBE57:
 313              		.loc 1 60 5
 314 0180 638C0702 		beqz	a5,.L18
 315              	.L16:
  61:src/tcb.cpp   ****     running = Scheduler::get();
 316              		.loc 1 61 5 is_stmt 1
 317              		.loc 1 61 29 is_stmt 0
GAS LISTING /tmp/cciLBqOJ.s 			page 10


 318 0184 97000000 		call	_ZN9Scheduler3getEv@plt
 318      E7800000 
 319              	.LVL26:
 320              		.loc 1 61 13
 321 018c 97070000 		sd	a0,.LANCHOR0+24,a5
 321      23B0A700 
  62:src/tcb.cpp   **** 
  63:src/tcb.cpp   **** //    if(Scheduler::getSchSize() < (TCB::maxThreads - 1)){
  64:src/tcb.cpp   **** //        Scheduler::put(blocked->removeFirst());
  65:src/tcb.cpp   **** //    }
  66:src/tcb.cpp   **** 
  67:src/tcb.cpp   ****     TCB::contextSwitch(&old->context, &running->context);
 322              		.loc 1 67 5 is_stmt 1
 323              		.loc 1 67 23 is_stmt 0
 324 0194 93058500 		addi	a1,a0,8
 325 0198 13858400 		addi	a0,s1,8
 326 019c 97000000 		call	_ZN3TCB13contextSwitchEPNS_7ContextES1_@plt
 326      E7800000 
 327              	.LVL27:
  68:src/tcb.cpp   **** }
 328              		.loc 1 68 1
 329 01a4 83308101 		ld	ra,24(sp)
 330              		.cfi_remember_state
 331              		.cfi_restore 1
 332 01a8 03340101 		ld	s0,16(sp)
 333              		.cfi_restore 8
 334              		.cfi_def_cfa 2, 32
 335 01ac 83348100 		ld	s1,8(sp)
 336              		.cfi_restore 9
 337              	.LVL28:
 338 01b0 13010102 		addi	sp,sp,32
 339              		.cfi_def_cfa_offset 0
 340 01b4 67800000 		jr	ra
 341              	.LVL29:
 342              	.L18:
 343              		.cfi_restore_state
  60:src/tcb.cpp   ****     running = Scheduler::get();
 344              		.loc 1 60 31 is_stmt 1 discriminator 1
  60:src/tcb.cpp   ****     running = Scheduler::get();
 345              		.loc 1 60 45 is_stmt 0 discriminator 1
 346 01b8 13850400 		mv	a0,s1
 347 01bc 97000000 		call	_ZN9Scheduler3putEP3TCB@plt
 347      E7800000 
 348              	.LVL30:
 349 01c4 6FF01FFC 		j	.L16
 350              		.cfi_endproc
 351              	.LFE55:
 353              		.align	2
 354              		.globl	_ZN3TCB11getThreadIdEv
 356              	_ZN3TCB11getThreadIdEv:
 357              	.LFB50:
  13:src/tcb.cpp   ****     TCB::dispatch();
 358              		.loc 1 13 24 is_stmt 1
 359              		.cfi_startproc
 360              	.LVL31:
 361 01c8 130101FE 		addi	sp,sp,-32
 362              		.cfi_def_cfa_offset 32
GAS LISTING /tmp/cciLBqOJ.s 			page 11


 363 01cc 233C1100 		sd	ra,24(sp)
 364 01d0 23388100 		sd	s0,16(sp)
 365 01d4 23349100 		sd	s1,8(sp)
 366              		.cfi_offset 1, -8
 367              		.cfi_offset 8, -16
 368              		.cfi_offset 9, -24
 369 01d8 13040102 		addi	s0,sp,32
 370              		.cfi_def_cfa 8, 0
 371 01dc 93040500 		mv	s1,a0
  14:src/tcb.cpp   ****     return threadId;
 372              		.loc 1 14 5
  14:src/tcb.cpp   ****     return threadId;
 373              		.loc 1 14 18 is_stmt 0
 374 01e0 97000000 		call	_ZN3TCB8dispatchEv
 374      E7800000 
 375              	.LVL32:
  15:src/tcb.cpp   **** }
 376              		.loc 1 15 5 is_stmt 1
  16:src/tcb.cpp   **** 
 377              		.loc 1 16 1 is_stmt 0
 378 01e8 03A50404 		lw	a0,64(s1)
 379 01ec 83308101 		ld	ra,24(sp)
 380              		.cfi_restore 1
 381 01f0 03340101 		ld	s0,16(sp)
 382              		.cfi_restore 8
 383              		.cfi_def_cfa 2, 32
 384 01f4 83348100 		ld	s1,8(sp)
 385              		.cfi_restore 9
 386              	.LVL33:
 387 01f8 13010102 		addi	sp,sp,32
 388              		.cfi_def_cfa_offset 0
 389 01fc 67800000 		jr	ra
 390              		.cfi_endproc
 391              	.LFE50:
 393              		.section	.rodata.str1.8,"aMS",@progbits,1
 394              		.align	3
 395              	.LC0:
 396 0000 49642070 		.string	"Id ping-ovane niti je: "
 396      696E672D 
 396      6F76616E 
 396      65206E69 
 396      7469206A 
 397              		.align	3
 398              	.LC1:
 399 0018 0A00     		.string	"\n"
 400              		.text
 401              		.align	2
 402              		.globl	_ZN3TCB13threadWrapperEv
 404              	_ZN3TCB13threadWrapperEv:
 405              	.LFB52:
  23:src/tcb.cpp   **** 
 406              		.loc 1 23 26 is_stmt 1
 407              		.cfi_startproc
 408 0200 130101FE 		addi	sp,sp,-32
 409              		.cfi_def_cfa_offset 32
 410 0204 233C1100 		sd	ra,24(sp)
 411 0208 23388100 		sd	s0,16(sp)
GAS LISTING /tmp/cciLBqOJ.s 			page 12


 412 020c 23349100 		sd	s1,8(sp)
 413              		.cfi_offset 1, -8
 414              		.cfi_offset 8, -16
 415              		.cfi_offset 9, -24
 416 0210 13040102 		addi	s0,sp,32
 417              		.cfi_def_cfa 8, 0
  25:src/tcb.cpp   ****     running->body(running->arg);
 418              		.loc 1 25 5
  25:src/tcb.cpp   ****     running->body(running->arg);
 419              		.loc 1 25 22 is_stmt 0
 420 0214 97000000 		call	_ZN5Riscv10popSppSpieEv@plt
 420      E7800000 
 421              	.LVL34:
  26:src/tcb.cpp   ****     if(TCB::running->pinged){
 422              		.loc 1 26 5 is_stmt 1
  26:src/tcb.cpp   ****     if(TCB::running->pinged){
 423              		.loc 1 26 14 is_stmt 0
 424 021c 97040000 		lla	s1,.LANCHOR0
 424      93840400 
 425 0224 83B78401 		ld	a5,24(s1)
 426 0228 03B78701 		ld	a4,24(a5)
  26:src/tcb.cpp   ****     if(TCB::running->pinged){
 427              		.loc 1 26 18
 428 022c 03B50702 		ld	a0,32(a5)
 429 0230 E7000700 		jalr	a4
 430              	.LVL35:
  27:src/tcb.cpp   ****         int id = TCB::running->getThreadId();
 431              		.loc 1 27 5 is_stmt 1
 432              	.LBB59:
  27:src/tcb.cpp   ****         int id = TCB::running->getThreadId();
 433              		.loc 1 27 22 is_stmt 0
 434 0234 03B58401 		ld	a0,24(s1)
 435 0238 83474504 		lbu	a5,68(a0)
  27:src/tcb.cpp   ****         int id = TCB::running->getThreadId();
 436              		.loc 1 27 5
 437 023c 63900702 		bnez	a5,.L24
 438              	.L22:
 439              	.LBE59:
  33:src/tcb.cpp   **** }
 440              		.loc 1 33 5 is_stmt 1
  33:src/tcb.cpp   **** }
 441              		.loc 1 33 16 is_stmt 0
 442 0240 97000000 		call	_Z11thread_exitv@plt
 442      E7800000 
 443              	.LVL36:
  34:src/tcb.cpp   **** 
 444              		.loc 1 34 1
 445 0248 83308101 		ld	ra,24(sp)
 446              		.cfi_remember_state
 447              		.cfi_restore 1
 448 024c 03340101 		ld	s0,16(sp)
 449              		.cfi_restore 8
 450              		.cfi_def_cfa 2, 32
 451 0250 83348100 		ld	s1,8(sp)
 452              		.cfi_restore 9
 453 0254 13010102 		addi	sp,sp,32
 454              		.cfi_def_cfa_offset 0
GAS LISTING /tmp/cciLBqOJ.s 			page 13


 455 0258 67800000 		jr	ra
 456              	.L24:
 457              		.cfi_restore_state
 458              	.LBB61:
 459              	.LBB60:
  28:src/tcb.cpp   ****         printString("Id ping-ovane niti je: ");
 460              		.loc 1 28 9 is_stmt 1
  28:src/tcb.cpp   ****         printString("Id ping-ovane niti je: ");
 461              		.loc 1 28 43 is_stmt 0
 462 025c 97000000 		call	_ZN3TCB11getThreadIdEv
 462      E7800000 
 463              	.LVL37:
 464 0264 93040500 		mv	s1,a0
 465              	.LVL38:
  29:src/tcb.cpp   ****         printInt(id);
 466              		.loc 1 29 9 is_stmt 1
  29:src/tcb.cpp   ****         printInt(id);
 467              		.loc 1 29 20 is_stmt 0
 468 0268 17050000 		lla	a0,.LC0
 468      13050500 
 469 0270 97000000 		call	_Z11printStringPKc@plt
 469      E7800000 
 470              	.LVL39:
  30:src/tcb.cpp   ****         printString("\n");
 471              		.loc 1 30 9 is_stmt 1
  30:src/tcb.cpp   ****         printString("\n");
 472              		.loc 1 30 17 is_stmt 0
 473 0278 13060000 		li	a2,0
 474 027c 9305A000 		li	a1,10
 475 0280 13850400 		mv	a0,s1
 476 0284 97000000 		call	_Z8printIntiii@plt
 476      E7800000 
 477              	.LVL40:
  31:src/tcb.cpp   ****     }
 478              		.loc 1 31 9 is_stmt 1
  31:src/tcb.cpp   ****     }
 479              		.loc 1 31 20 is_stmt 0
 480 028c 17050000 		lla	a0,.LC1
 480      13050500 
 481 0294 97000000 		call	_Z11printStringPKc@plt
 481      E7800000 
 482              	.LVL41:
 483              	.LBE60:
 484 029c 6FF05FFA 		j	.L22
 485              	.LBE61:
 486              		.cfi_endproc
 487              	.LFE52:
 489              		.align	2
 490              		.globl	_ZN3TCB10threadExitEv
 492              	_ZN3TCB10threadExitEv:
 493              	.LFB54:
  40:src/tcb.cpp   **** 
 494              		.loc 1 40 22 is_stmt 1
 495              		.cfi_startproc
 496 02a0 130101FE 		addi	sp,sp,-32
 497              		.cfi_def_cfa_offset 32
 498 02a4 233C1100 		sd	ra,24(sp)
GAS LISTING /tmp/cciLBqOJ.s 			page 14


 499 02a8 23388100 		sd	s0,16(sp)
 500 02ac 23349100 		sd	s1,8(sp)
 501 02b0 23302101 		sd	s2,0(sp)
 502              		.cfi_offset 1, -8
 503              		.cfi_offset 8, -16
 504              		.cfi_offset 9, -24
 505              		.cfi_offset 18, -32
 506 02b4 13040102 		addi	s0,sp,32
 507              		.cfi_def_cfa 8, 0
  42:src/tcb.cpp   ****     running->setFinished(true);
 508              		.loc 1 42 5
  42:src/tcb.cpp   ****     running->setFinished(true);
 509              		.loc 1 42 22 is_stmt 0
 510 02b8 97070000 		ld	a5,.LANCHOR0+24
 510      83B70700 
  42:src/tcb.cpp   ****     running->setFinished(true);
 511              		.loc 1 42 5
 512 02c0 63840710 		beqz	a5,.L34
  43:src/tcb.cpp   ****     //za vracanje nazad svih niti koje su bile pre suspendovane za semafor koji je radio nad ovom n
 513              		.loc 1 43 5 is_stmt 1
 514              	.LVL42:
 515              	.LBB72:
 516              	.LBB73:
  49:src/../h/tcb.h ****     }
 517              		.loc 2 49 13
  49:src/../h/tcb.h ****     }
 518              		.loc 2 49 28 is_stmt 0
 519 02c4 13071000 		li	a4,1
 520 02c8 2388E702 		sb	a4,48(a5)
  50:src/../h/tcb.h ****     Context getContext() const { return context; }
 521              		.loc 2 50 5
 522 02cc 6F000002 		j	.L30
 523              	.LVL43:
 524              	.L38:
 525              	.LBE73:
 526              	.LBE72:
 527              	.LBB74:
 528              	.LBB75:
  24:src/../h/../h/list.h **** 
  25:src/../h/../h/list.h ****     List(const List<T> &) = delete;
  26:src/../h/../h/list.h **** 
  27:src/../h/../h/list.h ****     List<T> &operator=(const List<T> &) = delete;
  28:src/../h/../h/list.h **** 
  29:src/../h/../h/list.h ****     int getSize(){ return size; }
  30:src/../h/../h/list.h ****     void setSize(int size){ this->size = size; }
  31:src/../h/../h/list.h **** 
  32:src/../h/../h/list.h ****     void addFirst(T *data)
  33:src/../h/../h/list.h ****     {
  34:src/../h/../h/list.h ****         Elem *elem = new Elem(data, head);
  35:src/../h/../h/list.h ****         head = elem;
  36:src/../h/../h/list.h ****         size++;
  37:src/../h/../h/list.h ****         if (!tail) { tail = head; }
  38:src/../h/../h/list.h ****     }
  39:src/../h/../h/list.h **** 
  40:src/../h/../h/list.h ****     void addLast(T *data)
  41:src/../h/../h/list.h ****     {
  42:src/../h/../h/list.h ****         Elem *elem = new Elem(data, 0);
GAS LISTING /tmp/cciLBqOJ.s 			page 15


  43:src/../h/../h/list.h ****         size++;
  44:src/../h/../h/list.h ****         if (tail)
  45:src/../h/../h/list.h ****         {
  46:src/../h/../h/list.h ****             tail->next = elem;
  47:src/../h/../h/list.h ****             tail = elem;
  48:src/../h/../h/list.h ****         } else
  49:src/../h/../h/list.h ****         {
  50:src/../h/../h/list.h ****             head = tail = elem;
  51:src/../h/../h/list.h ****         }
  52:src/../h/../h/list.h ****     }
  53:src/../h/../h/list.h **** 
  54:src/../h/../h/list.h ****     T *removeFirst()
  55:src/../h/../h/list.h ****     {
  56:src/../h/../h/list.h ****         if (!head) { return 0; }
  57:src/../h/../h/list.h **** 
  58:src/../h/../h/list.h ****         Elem *elem = head;
  59:src/../h/../h/list.h ****         head = head->next;
  60:src/../h/../h/list.h ****         size--;
  61:src/../h/../h/list.h ****         if (!head) { tail = 0; }
 529              		.loc 3 61 22
 530 02d0 23B40700 		sd	zero,8(a5)
 531              	.L29:
  62:src/../h/../h/list.h **** 
  63:src/../h/../h/list.h ****         T *ret = elem->data;
 532              		.loc 3 63 12
 533 02d4 83340500 		ld	s1,0(a0)
 534              	.LVL44:
  64:src/../h/../h/list.h ****         delete elem;
 535              		.loc 3 64 9
 536 02d8 97000000 		call	_ZdlPv@plt
 536      E7800000 
 537              	.LVL45:
 538              	.L28:
 539              	.LBE75:
 540              	.LBE74:
  46:src/tcb.cpp   ****     }
 541              		.loc 1 46 23
 542 02e0 13850400 		mv	a0,s1
 543 02e4 97000000 		call	_ZN9Scheduler3putEP3TCB@plt
 543      E7800000 
 544              	.LVL46:
 545              	.L30:
  45:src/tcb.cpp   ****         Scheduler::put(running->suspended->removeFirst());
 546              		.loc 1 45 5 is_stmt 1
  45:src/tcb.cpp   ****         Scheduler::put(running->suspended->removeFirst());
 547              		.loc 1 45 39
  45:src/tcb.cpp   ****         Scheduler::put(running->suspended->removeFirst());
 548              		.loc 1 45 38 is_stmt 0
 549 02ec 97070000 		ld	a5,.LANCHOR0+24
 549      83B70700 
  45:src/tcb.cpp   ****         Scheduler::put(running->suspended->removeFirst());
 550              		.loc 1 45 20
 551 02f4 83B70700 		ld	a5,0(a5)
 552              	.LVL47:
 553              	.LBB77:
 554              	.LBB78:
  29:src/../h/../h/list.h ****     void setSize(int size){ this->size = size; }
GAS LISTING /tmp/cciLBqOJ.s 			page 16


 555              		.loc 3 29 27
 556 02f8 83A40701 		lw	s1,16(a5)
 557              	.LVL48:
 558              	.LBE78:
 559              	.LBE77:
  45:src/tcb.cpp   ****         Scheduler::put(running->suspended->removeFirst());
 560              		.loc 1 45 39
 561 02fc 63880402 		beqz	s1,.L27
  46:src/tcb.cpp   ****     }
 562              		.loc 1 46 9 is_stmt 1
 563              	.LVL49:
 564              	.LBB79:
 565              	.LBB76:
  56:src/../h/../h/list.h **** 
 566              		.loc 3 56 14 is_stmt 0
 567 0300 03B50700 		ld	a0,0(a5)
  56:src/../h/../h/list.h **** 
 568              		.loc 3 56 9
 569 0304 63000502 		beqz	a0,.L35
 570              	.LVL50:
  59:src/../h/../h/list.h ****         size--;
 571              		.loc 3 59 22
 572 0308 83368500 		ld	a3,8(a0)
  59:src/../h/../h/list.h ****         size--;
 573              		.loc 3 59 9
 574 030c 23B0D700 		sd	a3,0(a5)
  60:src/../h/../h/list.h ****         if (!head) { tail = 0; }
 575              		.loc 3 60 9
 576 0310 03A70701 		lw	a4,16(a5)
 577 0314 1B07F7FF 		addiw	a4,a4,-1
 578 0318 23A8E700 		sw	a4,16(a5)
  61:src/../h/../h/list.h **** 
 579              		.loc 3 61 9
 580 031c E39C06FA 		bnez	a3,.L29
 581 0320 6FF01FFB 		j	.L38
 582              	.LVL51:
 583              	.L35:
  56:src/../h/../h/list.h **** 
 584              		.loc 3 56 29
 585 0324 93040500 		mv	s1,a0
 586 0328 6FF09FFB 		j	.L28
 587              	.LVL52:
 588              	.L27:
 589              	.LBE76:
 590              	.LBE79:
  48:src/tcb.cpp   ****         Scheduler::put(blocked->removeFirst());
 591              		.loc 1 48 5 is_stmt 1
  48:src/tcb.cpp   ****         Scheduler::put(blocked->removeFirst());
 592              		.loc 1 48 24 is_stmt 0
 593 032c 97070000 		ld	a5,.LANCHOR0+8
 593      83B70700 
 594              	.LVL53:
 595              	.LBB80:
 596              	.LBB81:
  29:src/../h/../h/list.h ****     void setSize(int size){ this->size = size; }
 597              		.loc 3 29 27
 598 0334 83A70701 		lw	a5,16(a5)
GAS LISTING /tmp/cciLBqOJ.s 			page 17


 599              	.LVL54:
 600              	.LBE81:
 601              	.LBE80:
  48:src/tcb.cpp   ****         Scheduler::put(blocked->removeFirst());
 602              		.loc 1 48 32
 603 0338 63940702 		bnez	a5,.L39
 604              	.L31:
  52:src/tcb.cpp   **** 
 605              		.loc 1 52 5 is_stmt 1
  52:src/tcb.cpp   **** 
 606              		.loc 1 52 18 is_stmt 0
 607 033c 97000000 		call	_ZN3TCB8dispatchEv
 607      E7800000 
 608              	.LVL55:
  54:src/tcb.cpp   **** }
 609              		.loc 1 54 5 is_stmt 1
 610              	.L26:
  55:src/tcb.cpp   **** 
 611              		.loc 1 55 1 is_stmt 0
 612 0344 13850400 		mv	a0,s1
 613 0348 83308101 		ld	ra,24(sp)
 614              		.cfi_remember_state
 615              		.cfi_restore 1
 616 034c 03340101 		ld	s0,16(sp)
 617              		.cfi_restore 8
 618              		.cfi_def_cfa 2, 32
 619 0350 83348100 		ld	s1,8(sp)
 620              		.cfi_restore 9
 621 0354 03390100 		ld	s2,0(sp)
 622              		.cfi_restore 18
 623 0358 13010102 		addi	sp,sp,32
 624              		.cfi_def_cfa_offset 0
 625 035c 67800000 		jr	ra
 626              	.L39:
 627              		.cfi_restore_state
  48:src/tcb.cpp   ****         Scheduler::put(blocked->removeFirst());
 628              		.loc 1 48 56 discriminator 1
 629 0360 97000000 		call	_ZN9Scheduler10getSchSizeEv@plt
 629      E7800000 
 630              	.LVL56:
  48:src/tcb.cpp   ****         Scheduler::put(blocked->removeFirst());
 631              		.loc 1 48 59 discriminator 1
 632 0368 97070000 		lw	a5,.LANCHOR0
 632      83A70700 
  48:src/tcb.cpp   ****         Scheduler::put(blocked->removeFirst());
 633              		.loc 1 48 32 discriminator 1
 634 0370 E356F5FC 		ble	a5,a0,.L31
  49:src/tcb.cpp   ****     }
 635              		.loc 1 49 9 is_stmt 1
  49:src/tcb.cpp   ****     }
 636              		.loc 1 49 23 is_stmt 0
 637 0374 97070000 		ld	a5,.LANCHOR0+8
 637      83B70700 
 638              	.LVL57:
 639              	.LBB82:
 640              	.LBB83:
  56:src/../h/../h/list.h **** 
GAS LISTING /tmp/cciLBqOJ.s 			page 18


 641              		.loc 3 56 14
 642 037c 03B50700 		ld	a0,0(a5)
  56:src/../h/../h/list.h **** 
 643              		.loc 3 56 9
 644 0380 63000504 		beqz	a0,.L36
 645              	.LVL58:
  59:src/../h/../h/list.h ****         size--;
 646              		.loc 3 59 22
 647 0384 83368500 		ld	a3,8(a0)
  59:src/../h/../h/list.h ****         size--;
 648              		.loc 3 59 9
 649 0388 23B0D700 		sd	a3,0(a5)
  60:src/../h/../h/list.h ****         if (!head) { tail = 0; }
 650              		.loc 3 60 9
 651 038c 03A70701 		lw	a4,16(a5)
 652 0390 1B07F7FF 		addiw	a4,a4,-1
 653 0394 23A8E700 		sw	a4,16(a5)
  61:src/../h/../h/list.h **** 
 654              		.loc 3 61 9
 655 0398 63800602 		beqz	a3,.L40
 656              	.L33:
  63:src/../h/../h/list.h ****         delete elem;
 657              		.loc 3 63 12
 658 039c 03390500 		ld	s2,0(a0)
 659              	.LVL59:
 660              		.loc 3 64 9
 661 03a0 97000000 		call	_ZdlPv@plt
 661      E7800000 
 662              	.LVL60:
 663              	.L32:
 664              	.LBE83:
 665              	.LBE82:
  49:src/tcb.cpp   ****     }
 666              		.loc 1 49 23
 667 03a8 13050900 		mv	a0,s2
 668 03ac 97000000 		call	_ZN9Scheduler3putEP3TCB@plt
 668      E7800000 
 669              	.LVL61:
 670 03b4 6FF09FF8 		j	.L31
 671              	.LVL62:
 672              	.L40:
 673              	.LBB85:
 674              	.LBB84:
  61:src/../h/../h/list.h **** 
 675              		.loc 3 61 22
 676 03b8 23B40700 		sd	zero,8(a5)
 677 03bc 6FF01FFE 		j	.L33
 678              	.LVL63:
 679              	.L36:
  56:src/../h/../h/list.h **** 
 680              		.loc 3 56 29
 681 03c0 13090500 		mv	s2,a0
 682 03c4 6FF05FFE 		j	.L32
 683              	.LVL64:
 684              	.L34:
 685              	.LBE84:
 686              	.LBE85:
GAS LISTING /tmp/cciLBqOJ.s 			page 19


  42:src/tcb.cpp   ****     running->setFinished(true);
 687              		.loc 1 42 43
 688 03c8 9304F0FF 		li	s1,-1
 689 03cc 6FF09FF7 		j	.L26
 690              		.cfi_endproc
 691              	.LFE54:
 693              		.align	2
 694              		.globl	_ZN3TCB10threadJoinEPS_
 696              	_ZN3TCB10threadJoinEPS_:
 697              	.LFB56:
  69:src/tcb.cpp   **** 
  70:src/tcb.cpp   **** void TCB::threadJoin(thread_t handle){
 698              		.loc 1 70 38 is_stmt 1
 699              		.cfi_startproc
 700              	.LVL65:
 701 03d0 130101FE 		addi	sp,sp,-32
 702              		.cfi_def_cfa_offset 32
 703 03d4 233C1100 		sd	ra,24(sp)
 704 03d8 23388100 		sd	s0,16(sp)
 705 03dc 23349100 		sd	s1,8(sp)
 706 03e0 23302101 		sd	s2,0(sp)
 707              		.cfi_offset 1, -8
 708              		.cfi_offset 8, -16
 709              		.cfi_offset 9, -24
 710              		.cfi_offset 18, -32
 711 03e4 13040102 		addi	s0,sp,32
 712              		.cfi_def_cfa 8, 0
  71:src/tcb.cpp   **** 
  72:src/tcb.cpp   ****     if (running == nullptr || handle == nullptr)
 713              		.loc 1 72 5
 714              		.loc 1 72 17 is_stmt 0
 715 03e8 97040000 		ld	s1,.LANCHOR0+24
 715      83B40400 
 716              		.loc 1 72 5
 717 03f0 63880400 		beqz	s1,.L41
 718              		.loc 1 72 28 discriminator 1
 719 03f4 63060500 		beqz	a0,.L41
  73:src/tcb.cpp   ****         return;
  74:src/tcb.cpp   **** 
  75:src/tcb.cpp   ****     if (!handle->isFinished()) {
 720              		.loc 1 75 5 is_stmt 1
 721              	.LVL66:
 722              	.LBB95:
 723              	.LBB96:
 724              	.LBB97:
  47:src/../h/tcb.h ****     void setFinished(bool value) {
 725              		.loc 2 47 31
  47:src/../h/tcb.h ****     void setFinished(bool value) {
 726              		.loc 2 47 38 is_stmt 0
 727 03f8 83470503 		lbu	a5,48(a0)
 728              	.LVL67:
 729              	.LBE97:
 730              	.LBE96:
 731              		.loc 1 75 5
 732 03fc 638E0700 		beqz	a5,.L46
 733              	.LVL68:
 734              	.L41:
GAS LISTING /tmp/cciLBqOJ.s 			page 20


 735              	.LBE95:
  76:src/tcb.cpp   ****         handle->suspended->addLast(running);
  77:src/tcb.cpp   ****         TCB* current = running;
  78:src/tcb.cpp   ****         running = Scheduler::get();
  79:src/tcb.cpp   ****         TCB::contextSwitch(&current->context,&running->context);
  80:src/tcb.cpp   ****     }
  81:src/tcb.cpp   **** 
  82:src/tcb.cpp   **** }
 736              		.loc 1 82 1
 737 0400 83308101 		ld	ra,24(sp)
 738              		.cfi_remember_state
 739              		.cfi_restore 1
 740 0404 03340101 		ld	s0,16(sp)
 741              		.cfi_restore 8
 742              		.cfi_def_cfa 2, 32
 743 0408 83348100 		ld	s1,8(sp)
 744              		.cfi_restore 9
 745 040c 03390100 		ld	s2,0(sp)
 746              		.cfi_restore 18
 747 0410 13010102 		addi	sp,sp,32
 748              		.cfi_def_cfa_offset 0
 749 0414 67800000 		jr	ra
 750              	.LVL69:
 751              	.L46:
 752              		.cfi_restore_state
 753              	.LBB106:
 754              	.LBB98:
  76:src/tcb.cpp   ****         handle->suspended->addLast(running);
 755              		.loc 1 76 9 is_stmt 1
  76:src/tcb.cpp   ****         handle->suspended->addLast(running);
 756              		.loc 1 76 17 is_stmt 0
 757 0418 03390500 		ld	s2,0(a0)
 758              	.LVL70:
 759              	.LBB99:
 760              	.LBB100:
  42:src/../h/../h/list.h ****         size++;
 761              		.loc 3 42 22
 762 041c 13050001 		li	a0,16
 763              	.LVL71:
 764 0420 97000000 		call	_Znwm@plt
 764      E7800000 
 765              	.LVL72:
 766              	.LBB101:
 767              	.LBB102:
  16:src/../h/../h/list.h ****     };
 768              		.loc 3 16 58
 769 0428 23309500 		sd	s1,0(a0)
 770 042c 23340500 		sd	zero,8(a0)
 771              	.LVL73:
 772              	.LBE102:
 773              	.LBE101:
  43:src/../h/../h/list.h ****         if (tail)
 774              		.loc 3 43 9
 775 0430 83270901 		lw	a5,16(s2)
 776 0434 9B871700 		addiw	a5,a5,1
 777 0438 2328F900 		sw	a5,16(s2)
  44:src/../h/../h/list.h ****         {
GAS LISTING /tmp/cciLBqOJ.s 			page 21


 778              		.loc 3 44 13
 779 043c 83378900 		ld	a5,8(s2)
  44:src/../h/../h/list.h ****         {
 780              		.loc 3 44 9
 781 0440 638C0702 		beqz	a5,.L43
  46:src/../h/../h/list.h ****             tail = elem;
 782              		.loc 3 46 13
 783 0444 23B4A700 		sd	a0,8(a5)
  47:src/../h/../h/list.h ****         } else
 784              		.loc 3 47 13
 785 0448 2334A900 		sd	a0,8(s2)
 786              	.L44:
 787              	.LVL74:
 788              	.LBE100:
 789              	.LBE99:
  77:src/tcb.cpp   ****         running = Scheduler::get();
 790              		.loc 1 77 9 is_stmt 1
  77:src/tcb.cpp   ****         running = Scheduler::get();
 791              		.loc 1 77 14 is_stmt 0
 792 044c 97040000 		lla	s1,.LANCHOR0
 792      93840400 
 793 0454 03B98401 		ld	s2,24(s1)
 794              	.LVL75:
  78:src/tcb.cpp   ****         TCB::contextSwitch(&current->context,&running->context);
 795              		.loc 1 78 9 is_stmt 1
  78:src/tcb.cpp   ****         TCB::contextSwitch(&current->context,&running->context);
 796              		.loc 1 78 33 is_stmt 0
 797 0458 97000000 		call	_ZN9Scheduler3getEv@plt
 797      E7800000 
 798              	.LVL76:
  78:src/tcb.cpp   ****         TCB::contextSwitch(&current->context,&running->context);
 799              		.loc 1 78 17
 800 0460 23BCA400 		sd	a0,24(s1)
  79:src/tcb.cpp   ****     }
 801              		.loc 1 79 9 is_stmt 1
  79:src/tcb.cpp   ****     }
 802              		.loc 1 79 27 is_stmt 0
 803 0464 93058500 		addi	a1,a0,8
 804 0468 13058900 		addi	a0,s2,8
 805 046c 97000000 		call	_ZN3TCB13contextSwitchEPNS_7ContextES1_@plt
 805      E7800000 
 806              	.LVL77:
 807              	.LBE98:
 808 0474 6FF0DFF8 		j	.L41
 809              	.LVL78:
 810              	.L43:
 811              	.LBB105:
 812              	.LBB104:
 813              	.LBB103:
  50:src/../h/../h/list.h ****         }
 814              		.loc 3 50 13
 815 0478 2334A900 		sd	a0,8(s2)
 816 047c 2330A900 		sd	a0,0(s2)
 817 0480 6FF0DFFC 		j	.L44
 818              	.LBE103:
 819              	.LBE104:
 820              	.LBE105:
GAS LISTING /tmp/cciLBqOJ.s 			page 22


 821              	.LBE106:
 822              		.cfi_endproc
 823              	.LFE56:
 825              		.globl	_ZN3TCB7blockedE
 826              		.globl	_ZN3TCB10maxThreadsE
 827              		.globl	_ZN3TCB11maxThreadIdE
 828              		.globl	_ZN3TCB7runningE
 829              		.bss
 830              		.align	3
 831              		.set	.LANCHOR0,. + 0
 834              	_ZN3TCB10maxThreadsE:
 835 0000 00000000 		.zero	4
 836 0004 00000000 		.zero	4
 839              	_ZN3TCB7blockedE:
 840 0008 00000000 		.zero	8
 840      00000000 
 843              	_ZN3TCB11maxThreadIdE:
 844 0010 00000000 		.zero	4
 845 0014 00000000 		.zero	4
 848              	_ZN3TCB7runningE:
 849 0018 00000000 		.zero	8
 849      00000000 
 850              		.text
 851              	.Letext0:
 852              		.file 4 "src/../h/../lib/hw.h"
 853              		.file 5 "src/../h/../h/mem.h"
 854              		.file 6 "src/../h/scheduler.h"
 855              		.file 7 "src/../h/../h/syscall_c.h"
 856              		.file 8 "src/../h/riscv.h"
 857              		.file 9 "src/../h/../test/printing.hpp"
 5171              		.align	3
 5174              	DW.ref.__gxx_personality_v0:
 5175 0000 00000000 		.dword	__gxx_personality_v0
 5175      00000000 
 5176              		.ident	"GCC: (Ubuntu 9.4.0-1ubuntu1~20.04) 9.4.0"
 5177              		.section	.note.GNU-stack,"",@progbits
GAS LISTING /tmp/cciLBqOJ.s 			page 23


DEFINED SYMBOLS
                            *ABS*:0000000000000000 tcb.cpp
     /tmp/cciLBqOJ.s:9      .text:0000000000000000 _ZN3TCB13setMaxThreadsEi
     /tmp/cciLBqOJ.s:13     .text:0000000000000000 .L0 
     /tmp/cciLBqOJ.s:15     .text:0000000000000000 .L0 
     /tmp/cciLBqOJ.s:16     .text:0000000000000004 .L0 
     /tmp/cciLBqOJ.s:18     .text:0000000000000008 .L0 
     /tmp/cciLBqOJ.s:20     .text:000000000000000c .L0 
     /tmp/cciLBqOJ.s:22     .text:000000000000000c .L0 
     /tmp/cciLBqOJ.s:23     .text:000000000000000c .L0 
     /tmp/cciLBqOJ.s:25     .text:0000000000000014 .L0 
     /tmp/cciLBqOJ.s:26     .text:0000000000000018 .L0 
     /tmp/cciLBqOJ.s:27     .text:0000000000000018 .L0 
     /tmp/cciLBqOJ.s:29     .text:000000000000001c .L0 
     /tmp/cciLBqOJ.s:31     .text:0000000000000020 .L0 
     /tmp/cciLBqOJ.s:37     .text:0000000000000020 _ZN3TCB4pingEPS_
     /tmp/cciLBqOJ.s:40     .text:0000000000000020 .L0 
     /tmp/cciLBqOJ.s:42     .text:0000000000000020 .L0 
     /tmp/cciLBqOJ.s:43     .text:0000000000000024 .L0 
     /tmp/cciLBqOJ.s:45     .text:0000000000000028 .L0 
     /tmp/cciLBqOJ.s:47     .text:000000000000002c .L0 
     /tmp/cciLBqOJ.s:53     .text:000000000000002c .L0 
     /tmp/cciLBqOJ.s:54     .text:000000000000002c .L0 
     /tmp/cciLBqOJ.s:55     .text:000000000000002c .L0 
     /tmp/cciLBqOJ.s:61     .text:0000000000000034 .L0 
     /tmp/cciLBqOJ.s:62     .text:0000000000000038 .L0 
     /tmp/cciLBqOJ.s:63     .text:0000000000000038 .L0 
     /tmp/cciLBqOJ.s:65     .text:000000000000003c .L0 
     /tmp/cciLBqOJ.s:67     .text:0000000000000040 .L0 
     /tmp/cciLBqOJ.s:73     .text:0000000000000040 _ZN3TCB12createThreadEPFvPvES0_Pm
     /tmp/cciLBqOJ.s:76     .text:0000000000000040 .L0 
     /tmp/cciLBqOJ.s:5174   .data.rel.local.DW.ref.__gxx_personality_v0:0000000000000000 DW.ref.__gxx_personality_v0
     /tmp/cciLBqOJ.s:80     .text:0000000000000040 .L0 
     /tmp/cciLBqOJ.s:81     .text:0000000000000044 .L0 
     /tmp/cciLBqOJ.s:88     .text:000000000000005c .L0 
     /tmp/cciLBqOJ.s:89     .text:000000000000005c .L0 
     /tmp/cciLBqOJ.s:90     .text:000000000000005c .L0 
     /tmp/cciLBqOJ.s:91     .text:000000000000005c .L0 
     /tmp/cciLBqOJ.s:92     .text:000000000000005c .L0 
     /tmp/cciLBqOJ.s:93     .text:000000000000005c .L0 
     /tmp/cciLBqOJ.s:95     .text:0000000000000060 .L0 
     /tmp/cciLBqOJ.s:103    .text:000000000000006c .L0 
     /tmp/cciLBqOJ.s:104    .text:000000000000006c .L0 
     /tmp/cciLBqOJ.s:105    .text:000000000000006c .L0 
     /tmp/cciLBqOJ.s:118    .text:000000000000007c .L0 
     /tmp/cciLBqOJ.s:119    .text:000000000000007c .L0 
     /tmp/cciLBqOJ.s:121    .text:0000000000000080 .L0 
     /tmp/cciLBqOJ.s:122    .text:0000000000000080 .L0 
     /tmp/cciLBqOJ.s:124    .text:0000000000000084 .L0 
     /tmp/cciLBqOJ.s:125    .text:0000000000000084 .L0 
     /tmp/cciLBqOJ.s:127    .text:0000000000000088 .L0 
     /tmp/cciLBqOJ.s:404    .text:0000000000000200 _ZN3TCB13threadWrapperEv
     /tmp/cciLBqOJ.s:128    .text:0000000000000088 .L0 
     /tmp/cciLBqOJ.s:131    .text:0000000000000094 .L0 
     /tmp/cciLBqOJ.s:132    .text:0000000000000094 .L0 
     /tmp/cciLBqOJ.s:134    .text:0000000000000098 .L0 
     /tmp/cciLBqOJ.s:139    .text:00000000000000a0 .L0 
GAS LISTING /tmp/cciLBqOJ.s 			page 24


     /tmp/cciLBqOJ.s:141    .text:00000000000000a4 .L0 
     /tmp/cciLBqOJ.s:142    .text:00000000000000a4 .L0 
     /tmp/cciLBqOJ.s:144    .text:00000000000000a8 .L0 
     /tmp/cciLBqOJ.s:145    .text:00000000000000a8 .L0 
     /tmp/cciLBqOJ.s:147    .text:00000000000000ac .L0 
     /tmp/cciLBqOJ.s:148    .text:00000000000000ac .L0 
     /tmp/cciLBqOJ.s:150    .text:00000000000000b0 .L0 
     /tmp/cciLBqOJ.s:151    .text:00000000000000b0 .L0 
     /tmp/cciLBqOJ.s:159    .text:00000000000000c0 .L0 
     /tmp/cciLBqOJ.s:168    .text:00000000000000c8 .L0 
     /tmp/cciLBqOJ.s:175    .text:00000000000000d4 .L0 
     /tmp/cciLBqOJ.s:177    .text:00000000000000d8 .L0 
     /tmp/cciLBqOJ.s:178    .text:00000000000000d8 .L0 
     /tmp/cciLBqOJ.s:180    .text:00000000000000dc .L0 
     /tmp/cciLBqOJ.s:183    .text:00000000000000e0 .L0 
     /tmp/cciLBqOJ.s:184    .text:00000000000000e0 .L0 
     /tmp/cciLBqOJ.s:188    .text:00000000000000f0 .L0 
     /tmp/cciLBqOJ.s:189    .text:00000000000000f0 .L0 
     /tmp/cciLBqOJ.s:192    .text:00000000000000f8 .L0 
     /tmp/cciLBqOJ.s:193    .text:00000000000000f8 .L0 
     /tmp/cciLBqOJ.s:198    .text:00000000000000fc .L0 
     /tmp/cciLBqOJ.s:200    .text:0000000000000104 .L0 
     /tmp/cciLBqOJ.s:201    .text:0000000000000104 .L0 
     /tmp/cciLBqOJ.s:203    .text:0000000000000108 .L0 
     /tmp/cciLBqOJ.s:204    .text:0000000000000108 .L0 
     /tmp/cciLBqOJ.s:206    .text:000000000000010c .L0 
     /tmp/cciLBqOJ.s:208    .text:0000000000000110 .L0 
     /tmp/cciLBqOJ.s:210    .text:0000000000000114 .L0 
     /tmp/cciLBqOJ.s:213    .text:0000000000000118 .L0 
     /tmp/cciLBqOJ.s:216    .text:000000000000011c .L0 
     /tmp/cciLBqOJ.s:220    .text:0000000000000120 .L0 
     /tmp/cciLBqOJ.s:224    .text:0000000000000120 .L0 
     /tmp/cciLBqOJ.s:225    .text:0000000000000120 .L0 
     /tmp/cciLBqOJ.s:232    .text:000000000000012c .L0 
     /tmp/cciLBqOJ.s:239    .text:0000000000000138 .L0 
     /tmp/cciLBqOJ.s:249    .text:0000000000000148 .L0 
     /tmp/cciLBqOJ.s:250    .text:0000000000000148 .L0 
     /tmp/cciLBqOJ.s:260    .text:0000000000000160 .L0 
     /tmp/cciLBqOJ.s:286    .text:0000000000000160 _ZN3TCB8dispatchEv
     /tmp/cciLBqOJ.s:289    .text:0000000000000160 .L0 
     /tmp/cciLBqOJ.s:290    .text:0000000000000160 .L0 
     /tmp/cciLBqOJ.s:291    .text:0000000000000164 .L0 
     /tmp/cciLBqOJ.s:295    .text:0000000000000170 .L0 
     /tmp/cciLBqOJ.s:296    .text:0000000000000170 .L0 
     /tmp/cciLBqOJ.s:297    .text:0000000000000170 .L0 
     /tmp/cciLBqOJ.s:299    .text:0000000000000174 .L0 
     /tmp/cciLBqOJ.s:301    .text:0000000000000174 .L0 
     /tmp/cciLBqOJ.s:302    .text:0000000000000174 .L0 
     /tmp/cciLBqOJ.s:307    .text:000000000000017c .L0 
     /tmp/cciLBqOJ.s:308    .text:000000000000017c .L0 
     /tmp/cciLBqOJ.s:309    .text:000000000000017c .L0 
     /tmp/cciLBqOJ.s:314    .text:0000000000000180 .L0 
     /tmp/cciLBqOJ.s:317    .text:0000000000000184 .L0 
     /tmp/cciLBqOJ.s:318    .text:0000000000000184 .L0 
     /tmp/cciLBqOJ.s:321    .text:000000000000018c .L0 
     /tmp/cciLBqOJ.s:323    .text:0000000000000194 .L0 
     /tmp/cciLBqOJ.s:324    .text:0000000000000194 .L0 
GAS LISTING /tmp/cciLBqOJ.s 			page 25


     /tmp/cciLBqOJ.s:329    .text:00000000000001a4 .L0 
     /tmp/cciLBqOJ.s:330    .text:00000000000001a8 .L0 
     /tmp/cciLBqOJ.s:331    .text:00000000000001a8 .L0 
     /tmp/cciLBqOJ.s:333    .text:00000000000001ac .L0 
     /tmp/cciLBqOJ.s:334    .text:00000000000001ac .L0 
     /tmp/cciLBqOJ.s:336    .text:00000000000001b0 .L0 
     /tmp/cciLBqOJ.s:339    .text:00000000000001b4 .L0 
     /tmp/cciLBqOJ.s:343    .text:00000000000001b8 .L0 
     /tmp/cciLBqOJ.s:345    .text:00000000000001b8 .L0 
     /tmp/cciLBqOJ.s:346    .text:00000000000001b8 .L0 
     /tmp/cciLBqOJ.s:350    .text:00000000000001c8 .L0 
     /tmp/cciLBqOJ.s:356    .text:00000000000001c8 _ZN3TCB11getThreadIdEv
     /tmp/cciLBqOJ.s:359    .text:00000000000001c8 .L0 
     /tmp/cciLBqOJ.s:361    .text:00000000000001c8 .L0 
     /tmp/cciLBqOJ.s:362    .text:00000000000001cc .L0 
     /tmp/cciLBqOJ.s:366    .text:00000000000001d8 .L0 
     /tmp/cciLBqOJ.s:367    .text:00000000000001d8 .L0 
     /tmp/cciLBqOJ.s:368    .text:00000000000001d8 .L0 
     /tmp/cciLBqOJ.s:370    .text:00000000000001dc .L0 
     /tmp/cciLBqOJ.s:373    .text:00000000000001e0 .L0 
     /tmp/cciLBqOJ.s:374    .text:00000000000001e0 .L0 
     /tmp/cciLBqOJ.s:377    .text:00000000000001e8 .L0 
     /tmp/cciLBqOJ.s:378    .text:00000000000001e8 .L0 
     /tmp/cciLBqOJ.s:380    .text:00000000000001f0 .L0 
     /tmp/cciLBqOJ.s:382    .text:00000000000001f4 .L0 
     /tmp/cciLBqOJ.s:383    .text:00000000000001f4 .L0 
     /tmp/cciLBqOJ.s:385    .text:00000000000001f8 .L0 
     /tmp/cciLBqOJ.s:388    .text:00000000000001fc .L0 
     /tmp/cciLBqOJ.s:390    .text:0000000000000200 .L0 
     /tmp/cciLBqOJ.s:407    .text:0000000000000200 .L0 
     /tmp/cciLBqOJ.s:408    .text:0000000000000200 .L0 
     /tmp/cciLBqOJ.s:409    .text:0000000000000204 .L0 
     /tmp/cciLBqOJ.s:413    .text:0000000000000210 .L0 
     /tmp/cciLBqOJ.s:414    .text:0000000000000210 .L0 
     /tmp/cciLBqOJ.s:415    .text:0000000000000210 .L0 
     /tmp/cciLBqOJ.s:417    .text:0000000000000214 .L0 
     /tmp/cciLBqOJ.s:419    .text:0000000000000214 .L0 
     /tmp/cciLBqOJ.s:420    .text:0000000000000214 .L0 
     /tmp/cciLBqOJ.s:423    .text:000000000000021c .L0 
     /tmp/cciLBqOJ.s:424    .text:000000000000021c .L0 
     /tmp/cciLBqOJ.s:428    .text:000000000000022c .L0 
     /tmp/cciLBqOJ.s:433    .text:0000000000000234 .L0 
     /tmp/cciLBqOJ.s:434    .text:0000000000000234 .L0 
     /tmp/cciLBqOJ.s:437    .text:000000000000023c .L0 
     /tmp/cciLBqOJ.s:441    .text:0000000000000240 .L0 
     /tmp/cciLBqOJ.s:442    .text:0000000000000240 .L0 
     /tmp/cciLBqOJ.s:445    .text:0000000000000248 .L0 
     /tmp/cciLBqOJ.s:446    .text:000000000000024c .L0 
     /tmp/cciLBqOJ.s:447    .text:000000000000024c .L0 
     /tmp/cciLBqOJ.s:449    .text:0000000000000250 .L0 
     /tmp/cciLBqOJ.s:450    .text:0000000000000250 .L0 
     /tmp/cciLBqOJ.s:452    .text:0000000000000254 .L0 
     /tmp/cciLBqOJ.s:454    .text:0000000000000258 .L0 
     /tmp/cciLBqOJ.s:457    .text:000000000000025c .L0 
     /tmp/cciLBqOJ.s:461    .text:000000000000025c .L0 
     /tmp/cciLBqOJ.s:462    .text:000000000000025c .L0 
     /tmp/cciLBqOJ.s:467    .text:0000000000000268 .L0 
GAS LISTING /tmp/cciLBqOJ.s 			page 26


     /tmp/cciLBqOJ.s:468    .text:0000000000000268 .L0 
     /tmp/cciLBqOJ.s:472    .text:0000000000000278 .L0 
     /tmp/cciLBqOJ.s:473    .text:0000000000000278 .L0 
     /tmp/cciLBqOJ.s:479    .text:000000000000028c .L0 
     /tmp/cciLBqOJ.s:480    .text:000000000000028c .L0 
     /tmp/cciLBqOJ.s:486    .text:00000000000002a0 .L0 
     /tmp/cciLBqOJ.s:492    .text:00000000000002a0 _ZN3TCB10threadExitEv
     /tmp/cciLBqOJ.s:495    .text:00000000000002a0 .L0 
     /tmp/cciLBqOJ.s:496    .text:00000000000002a0 .L0 
     /tmp/cciLBqOJ.s:497    .text:00000000000002a4 .L0 
     /tmp/cciLBqOJ.s:502    .text:00000000000002b4 .L0 
     /tmp/cciLBqOJ.s:503    .text:00000000000002b4 .L0 
     /tmp/cciLBqOJ.s:504    .text:00000000000002b4 .L0 
     /tmp/cciLBqOJ.s:505    .text:00000000000002b4 .L0 
     /tmp/cciLBqOJ.s:507    .text:00000000000002b8 .L0 
     /tmp/cciLBqOJ.s:509    .text:00000000000002b8 .L0 
     /tmp/cciLBqOJ.s:510    .text:00000000000002b8 .L0 
     /tmp/cciLBqOJ.s:512    .text:00000000000002c0 .L0 
     /tmp/cciLBqOJ.s:517    .text:00000000000002c4 .L0 
     /tmp/cciLBqOJ.s:518    .text:00000000000002c4 .L0 
     /tmp/cciLBqOJ.s:519    .text:00000000000002c4 .L0 
     /tmp/cciLBqOJ.s:522    .text:00000000000002cc .L0 
     /tmp/cciLBqOJ.s:530    .text:00000000000002d0 .L0 
     /tmp/cciLBqOJ.s:533    .text:00000000000002d4 .L0 
     /tmp/cciLBqOJ.s:536    .text:00000000000002d8 .L0 
     /tmp/cciLBqOJ.s:542    .text:00000000000002e0 .L0 
     /tmp/cciLBqOJ.s:547    .text:00000000000002ec .L0 
     /tmp/cciLBqOJ.s:548    .text:00000000000002ec .L0 
     /tmp/cciLBqOJ.s:549    .text:00000000000002ec .L0 
     /tmp/cciLBqOJ.s:551    .text:00000000000002f4 .L0 
     /tmp/cciLBqOJ.s:556    .text:00000000000002f8 .L0 
     /tmp/cciLBqOJ.s:561    .text:00000000000002fc .L0 
     /tmp/cciLBqOJ.s:566    .text:0000000000000300 .L0 
     /tmp/cciLBqOJ.s:567    .text:0000000000000300 .L0 
     /tmp/cciLBqOJ.s:569    .text:0000000000000304 .L0 
     /tmp/cciLBqOJ.s:572    .text:0000000000000308 .L0 
     /tmp/cciLBqOJ.s:574    .text:000000000000030c .L0 
     /tmp/cciLBqOJ.s:576    .text:0000000000000310 .L0 
     /tmp/cciLBqOJ.s:580    .text:000000000000031c .L0 
     /tmp/cciLBqOJ.s:585    .text:0000000000000324 .L0 
     /tmp/cciLBqOJ.s:592    .text:000000000000032c .L0 
     /tmp/cciLBqOJ.s:593    .text:000000000000032c .L0 
     /tmp/cciLBqOJ.s:598    .text:0000000000000334 .L0 
     /tmp/cciLBqOJ.s:603    .text:0000000000000338 .L0 
     /tmp/cciLBqOJ.s:606    .text:000000000000033c .L0 
     /tmp/cciLBqOJ.s:607    .text:000000000000033c .L0 
     /tmp/cciLBqOJ.s:611    .text:0000000000000344 .L0 
     /tmp/cciLBqOJ.s:612    .text:0000000000000344 .L0 
     /tmp/cciLBqOJ.s:614    .text:000000000000034c .L0 
     /tmp/cciLBqOJ.s:615    .text:000000000000034c .L0 
     /tmp/cciLBqOJ.s:617    .text:0000000000000350 .L0 
     /tmp/cciLBqOJ.s:618    .text:0000000000000350 .L0 
     /tmp/cciLBqOJ.s:620    .text:0000000000000354 .L0 
     /tmp/cciLBqOJ.s:622    .text:0000000000000358 .L0 
     /tmp/cciLBqOJ.s:624    .text:000000000000035c .L0 
     /tmp/cciLBqOJ.s:627    .text:0000000000000360 .L0 
     /tmp/cciLBqOJ.s:629    .text:0000000000000360 .L0 
GAS LISTING /tmp/cciLBqOJ.s 			page 27


     /tmp/cciLBqOJ.s:632    .text:0000000000000368 .L0 
     /tmp/cciLBqOJ.s:634    .text:0000000000000370 .L0 
     /tmp/cciLBqOJ.s:636    .text:0000000000000374 .L0 
     /tmp/cciLBqOJ.s:637    .text:0000000000000374 .L0 
     /tmp/cciLBqOJ.s:642    .text:000000000000037c .L0 
     /tmp/cciLBqOJ.s:644    .text:0000000000000380 .L0 
     /tmp/cciLBqOJ.s:647    .text:0000000000000384 .L0 
     /tmp/cciLBqOJ.s:649    .text:0000000000000388 .L0 
     /tmp/cciLBqOJ.s:651    .text:000000000000038c .L0 
     /tmp/cciLBqOJ.s:655    .text:0000000000000398 .L0 
     /tmp/cciLBqOJ.s:658    .text:000000000000039c .L0 
     /tmp/cciLBqOJ.s:661    .text:00000000000003a0 .L0 
     /tmp/cciLBqOJ.s:667    .text:00000000000003a8 .L0 
     /tmp/cciLBqOJ.s:676    .text:00000000000003b8 .L0 
     /tmp/cciLBqOJ.s:681    .text:00000000000003c0 .L0 
     /tmp/cciLBqOJ.s:688    .text:00000000000003c8 .L0 
     /tmp/cciLBqOJ.s:690    .text:00000000000003d0 .L0 
     /tmp/cciLBqOJ.s:696    .text:00000000000003d0 _ZN3TCB10threadJoinEPS_
     /tmp/cciLBqOJ.s:699    .text:00000000000003d0 .L0 
     /tmp/cciLBqOJ.s:701    .text:00000000000003d0 .L0 
     /tmp/cciLBqOJ.s:702    .text:00000000000003d4 .L0 
     /tmp/cciLBqOJ.s:707    .text:00000000000003e4 .L0 
     /tmp/cciLBqOJ.s:708    .text:00000000000003e4 .L0 
     /tmp/cciLBqOJ.s:709    .text:00000000000003e4 .L0 
     /tmp/cciLBqOJ.s:710    .text:00000000000003e4 .L0 
     /tmp/cciLBqOJ.s:712    .text:00000000000003e8 .L0 
     /tmp/cciLBqOJ.s:714    .text:00000000000003e8 .L0 
     /tmp/cciLBqOJ.s:715    .text:00000000000003e8 .L0 
     /tmp/cciLBqOJ.s:717    .text:00000000000003f0 .L0 
     /tmp/cciLBqOJ.s:719    .text:00000000000003f4 .L0 
     /tmp/cciLBqOJ.s:725    .text:00000000000003f8 .L0 
     /tmp/cciLBqOJ.s:726    .text:00000000000003f8 .L0 
     /tmp/cciLBqOJ.s:727    .text:00000000000003f8 .L0 
     /tmp/cciLBqOJ.s:732    .text:00000000000003fc .L0 
     /tmp/cciLBqOJ.s:737    .text:0000000000000400 .L0 
     /tmp/cciLBqOJ.s:738    .text:0000000000000404 .L0 
     /tmp/cciLBqOJ.s:739    .text:0000000000000404 .L0 
     /tmp/cciLBqOJ.s:741    .text:0000000000000408 .L0 
     /tmp/cciLBqOJ.s:742    .text:0000000000000408 .L0 
     /tmp/cciLBqOJ.s:744    .text:000000000000040c .L0 
     /tmp/cciLBqOJ.s:746    .text:0000000000000410 .L0 
     /tmp/cciLBqOJ.s:748    .text:0000000000000414 .L0 
     /tmp/cciLBqOJ.s:752    .text:0000000000000418 .L0 
     /tmp/cciLBqOJ.s:756    .text:0000000000000418 .L0 
     /tmp/cciLBqOJ.s:757    .text:0000000000000418 .L0 
     /tmp/cciLBqOJ.s:762    .text:000000000000041c .L0 
     /tmp/cciLBqOJ.s:769    .text:0000000000000428 .L0 
     /tmp/cciLBqOJ.s:775    .text:0000000000000430 .L0 
     /tmp/cciLBqOJ.s:779    .text:000000000000043c .L0 
     /tmp/cciLBqOJ.s:781    .text:0000000000000440 .L0 
     /tmp/cciLBqOJ.s:783    .text:0000000000000444 .L0 
     /tmp/cciLBqOJ.s:785    .text:0000000000000448 .L0 
     /tmp/cciLBqOJ.s:791    .text:000000000000044c .L0 
     /tmp/cciLBqOJ.s:792    .text:000000000000044c .L0 
     /tmp/cciLBqOJ.s:796    .text:0000000000000458 .L0 
     /tmp/cciLBqOJ.s:797    .text:0000000000000458 .L0 
     /tmp/cciLBqOJ.s:800    .text:0000000000000460 .L0 
GAS LISTING /tmp/cciLBqOJ.s 			page 28


     /tmp/cciLBqOJ.s:802    .text:0000000000000464 .L0 
     /tmp/cciLBqOJ.s:803    .text:0000000000000464 .L0 
     /tmp/cciLBqOJ.s:815    .text:0000000000000478 .L0 
     /tmp/cciLBqOJ.s:822    .text:0000000000000484 .L0 
     /tmp/cciLBqOJ.s:839    .bss:0000000000000008 _ZN3TCB7blockedE
     /tmp/cciLBqOJ.s:834    .bss:0000000000000000 _ZN3TCB10maxThreadsE
     /tmp/cciLBqOJ.s:843    .bss:0000000000000010 _ZN3TCB11maxThreadIdE
     /tmp/cciLBqOJ.s:848    .bss:0000000000000018 _ZN3TCB7runningE
     /tmp/cciLBqOJ.s:831    .bss:0000000000000000 .LANCHOR0
     /tmp/cciLBqOJ.s:858    .text:0000000000000484 .L0 
     /tmp/cciLBqOJ.s:23     .text:000000000000000c .L0 
     /tmp/cciLBqOJ.s:128    .text:0000000000000088 .L0 
     /tmp/cciLBqOJ.s:184    .text:00000000000000e0 .L0 
     /tmp/cciLBqOJ.s:239    .text:0000000000000138 .L0 
     /tmp/cciLBqOJ.s:302    .text:0000000000000174 .L0 
     /tmp/cciLBqOJ.s:321    .text:000000000000018c .L0 
     /tmp/cciLBqOJ.s:424    .text:000000000000021c .L0 
     /tmp/cciLBqOJ.s:395    .rodata.str1.8:0000000000000000 .LC0
     /tmp/cciLBqOJ.s:468    .text:0000000000000268 .L0 
     /tmp/cciLBqOJ.s:398    .rodata.str1.8:0000000000000018 .LC1
     /tmp/cciLBqOJ.s:480    .text:000000000000028c .L0 
     /tmp/cciLBqOJ.s:510    .text:00000000000002b8 .L0 
     /tmp/cciLBqOJ.s:549    .text:00000000000002ec .L0 
     /tmp/cciLBqOJ.s:593    .text:000000000000032c .L0 
     /tmp/cciLBqOJ.s:632    .text:0000000000000368 .L0 
     /tmp/cciLBqOJ.s:637    .text:0000000000000374 .L0 
     /tmp/cciLBqOJ.s:715    .text:00000000000003e8 .L0 
     /tmp/cciLBqOJ.s:792    .text:000000000000044c .L0 
     /tmp/cciLBqOJ.s:157    .text:00000000000000c0 .L9
     /tmp/cciLBqOJ.s:163    .text:00000000000000c8 .L13
     /tmp/cciLBqOJ.s:137    .text:00000000000000a0 .L6
     /tmp/cciLBqOJ.s:219    .text:0000000000000120 .L14
     /tmp/cciLBqOJ.s:181    .text:00000000000000e0 .L7
     /tmp/cciLBqOJ.s:342    .text:00000000000001b8 .L18
     /tmp/cciLBqOJ.s:315    .text:0000000000000184 .L16
     /tmp/cciLBqOJ.s:456    .text:000000000000025c .L24
     /tmp/cciLBqOJ.s:438    .text:0000000000000240 .L22
     /tmp/cciLBqOJ.s:684    .text:00000000000003c8 .L34
     /tmp/cciLBqOJ.s:545    .text:00000000000002ec .L30
     /tmp/cciLBqOJ.s:588    .text:000000000000032c .L27
     /tmp/cciLBqOJ.s:583    .text:0000000000000324 .L35
     /tmp/cciLBqOJ.s:531    .text:00000000000002d4 .L29
     /tmp/cciLBqOJ.s:524    .text:00000000000002d0 .L38
     /tmp/cciLBqOJ.s:538    .text:00000000000002e0 .L28
     /tmp/cciLBqOJ.s:626    .text:0000000000000360 .L39
     /tmp/cciLBqOJ.s:604    .text:000000000000033c .L31
     /tmp/cciLBqOJ.s:679    .text:00000000000003c0 .L36
     /tmp/cciLBqOJ.s:672    .text:00000000000003b8 .L40
     /tmp/cciLBqOJ.s:656    .text:000000000000039c .L33
     /tmp/cciLBqOJ.s:663    .text:00000000000003a8 .L32
     /tmp/cciLBqOJ.s:610    .text:0000000000000344 .L26
     /tmp/cciLBqOJ.s:734    .text:0000000000000400 .L41
     /tmp/cciLBqOJ.s:751    .text:0000000000000418 .L46
     /tmp/cciLBqOJ.s:810    .text:0000000000000478 .L43
     /tmp/cciLBqOJ.s:786    .text:000000000000044c .L44
     /tmp/cciLBqOJ.s:107    .text:0000000000000070 .LEHB0
     /tmp/cciLBqOJ.s:74     .text:0000000000000040 .LFB53
GAS LISTING /tmp/cciLBqOJ.s 			page 29


     /tmp/cciLBqOJ.s:110    .text:0000000000000078 .LEHE0
     /tmp/cciLBqOJ.s:152    .text:00000000000000b4 .LEHB1
     /tmp/cciLBqOJ.s:228    .text:000000000000012c .LEHE1
     /tmp/cciLBqOJ.s:241    .text:0000000000000144 .L10
     /tmp/cciLBqOJ.s:254    .text:0000000000000158 .LEHB2
     /tmp/cciLBqOJ.s:257    .text:0000000000000160 .LEHE2
     /tmp/cciLBqOJ.s:3026   .debug_abbrev:0000000000000000 .Ldebug_abbrev0
     /tmp/cciLBqOJ.s:5090   .debug_str:00000000000009ba .LASF199
     /tmp/cciLBqOJ.s:4890   .debug_str:0000000000000432 .LASF200
     /tmp/cciLBqOJ.s:5138   .debug_str:0000000000000bcc .LASF201
     /tmp/cciLBqOJ.s:5      .text:0000000000000000 .Ltext0
     /tmp/cciLBqOJ.s:851    .text:0000000000000484 .Letext0
     /tmp/cciLBqOJ.s:4750   .debug_line:0000000000000000 .Ldebug_line0
     /tmp/cciLBqOJ.s:4892   .debug_str:000000000000043e .LASF0
     /tmp/cciLBqOJ.s:4926   .debug_str:0000000000000550 .LASF1
     /tmp/cciLBqOJ.s:5030   .debug_str:000000000000083d .LASF2
     /tmp/cciLBqOJ.s:5040   .debug_str:0000000000000884 .LASF4
     /tmp/cciLBqOJ.s:4904   .debug_str:000000000000047f .LASF3
     /tmp/cciLBqOJ.s:4766   .debug_str:0000000000000082 .LASF5
     /tmp/cciLBqOJ.s:4988   .debug_str:00000000000006f9 .LASF6
     /tmp/cciLBqOJ.s:4918   .debug_str:0000000000000528 .LASF7
     /tmp/cciLBqOJ.s:4866   .debug_str:000000000000037c .LASF8
     /tmp/cciLBqOJ.s:4874   .debug_str:00000000000003bd .LASF9
     /tmp/cciLBqOJ.s:4802   .debug_str:0000000000000190 .LASF10
     /tmp/cciLBqOJ.s:4852   .debug_str:0000000000000319 .LASF11
     /tmp/cciLBqOJ.s:4814   .debug_str:00000000000001e7 .LASF12
     /tmp/cciLBqOJ.s:4800   .debug_str:0000000000000180 .LASF13
     /tmp/cciLBqOJ.s:5078   .debug_str:0000000000000972 .LASF14
     /tmp/cciLBqOJ.s:4838   .debug_str:0000000000000298 .LASF15
     /tmp/cciLBqOJ.s:5066   .debug_str:0000000000000928 .LASF16
     /tmp/cciLBqOJ.s:5116   .debug_str:0000000000000b23 .LASF20
     /tmp/cciLBqOJ.s:4924   .debug_str:000000000000054b .LASF17
     /tmp/cciLBqOJ.s:4776   .debug_str:00000000000000d3 .LASF18
     /tmp/cciLBqOJ.s:4804   .debug_str:000000000000019f .LASF19
     /tmp/cciLBqOJ.s:4930   .debug_str:000000000000056b .LASF21
     /tmp/cciLBqOJ.s:4774   .debug_str:00000000000000c5 .LASF22
     /tmp/cciLBqOJ.s:5098   .debug_str:0000000000000ab4 .LASF23
     /tmp/cciLBqOJ.s:5004   .debug_str:0000000000000777 .LASF24
     /tmp/cciLBqOJ.s:4784   .debug_str:000000000000010e .LASF132
     /tmp/cciLBqOJ.s:4938   .debug_str:00000000000005a9 .LASF134
     /tmp/cciLBqOJ.s:5018   .debug_str:00000000000007e8 .LASF25
     /tmp/cciLBqOJ.s:4906   .debug_str:0000000000000491 .LASF27
     /tmp/cciLBqOJ.s:4928   .debug_str:0000000000000563 .LASF26
     /tmp/cciLBqOJ.s:4934   .debug_str:000000000000058e .LASF28
     /tmp/cciLBqOJ.s:4902   .debug_str:0000000000000475 .LASF29
     /tmp/cciLBqOJ.s:4960   .debug_str:0000000000000642 .LASF30
     /tmp/cciLBqOJ.s:5056   .debug_str:00000000000008e1 .LASF38
     /tmp/cciLBqOJ.s:4868   .debug_str:000000000000038c .LASF31
     /tmp/cciLBqOJ.s:4994   .debug_str:000000000000072a .LASF32
     /tmp/cciLBqOJ.s:4998   .debug_str:0000000000000752 .LASF33
     /tmp/cciLBqOJ.s:5054   .debug_str:00000000000008d4 .LASF34
     /tmp/cciLBqOJ.s:4864   .debug_str:0000000000000372 .LASF35
     /tmp/cciLBqOJ.s:5060   .debug_str:00000000000008f8 .LASF36
     /tmp/cciLBqOJ.s:4780   .debug_str:00000000000000f7 .LASF37
     /tmp/cciLBqOJ.s:5152   .debug_str:0000000000000c58 .LASF202
     /tmp/cciLBqOJ.s:4884   .debug_str:00000000000003f0 .LASF39
     /tmp/cciLBqOJ.s:4984   .debug_str:00000000000006e2 .LASF40
GAS LISTING /tmp/cciLBqOJ.s 			page 30


     /tmp/cciLBqOJ.s:4770   .debug_str:0000000000000094 .LASF110
     /tmp/cciLBqOJ.s:5122   .debug_str:0000000000000b53 .LASF41
     /tmp/cciLBqOJ.s:5114   .debug_str:0000000000000b1e .LASF203
     /tmp/cciLBqOJ.s:4922   .debug_str:0000000000000546 .LASF42
     /tmp/cciLBqOJ.s:5156   .debug_str:0000000000000c87 .LASF204
     /tmp/cciLBqOJ.s:5072   .debug_str:0000000000000959 .LASF43
     /tmp/cciLBqOJ.s:4968   .debug_str:000000000000068b .LASF44
     /tmp/cciLBqOJ.s:4962   .debug_str:0000000000000667 .LASF45
     /tmp/cciLBqOJ.s:5068   .debug_str:000000000000093e .LASF46
     /tmp/cciLBqOJ.s:4848   .debug_str:00000000000002fc .LASF48
     /tmp/cciLBqOJ.s:5034   .debug_str:0000000000000858 .LASF205
     /tmp/cciLBqOJ.s:5020   .debug_str:00000000000007f1 .LASF206
     /tmp/cciLBqOJ.s:5050   .debug_str:00000000000008b6 .LASF47
     /tmp/cciLBqOJ.s:5006   .debug_str:0000000000000785 .LASF49
     /tmp/cciLBqOJ.s:4816   .debug_str:00000000000001f7 .LASF50
     /tmp/cciLBqOJ.s:4914   .debug_str:00000000000004f2 .LASF51
     /tmp/cciLBqOJ.s:5024   .debug_str:0000000000000821 .LASF52
     /tmp/cciLBqOJ.s:4798   .debug_str:0000000000000163 .LASF53
     /tmp/cciLBqOJ.s:4942   .debug_str:00000000000005ca .LASF54
     /tmp/cciLBqOJ.s:4840   .debug_str:00000000000002ae .LASF55
     /tmp/cciLBqOJ.s:5044   .debug_str:0000000000000890 .LASF56
     /tmp/cciLBqOJ.s:5124   .debug_str:0000000000000b5d .LASF57
     /tmp/cciLBqOJ.s:5166   .debug_str:0000000000000cee .LASF58
     /tmp/cciLBqOJ.s:5154   .debug_str:0000000000000c6c .LASF59
     /tmp/cciLBqOJ.s:4894   .debug_str:000000000000044b .LASF60
     /tmp/cciLBqOJ.s:4916   .debug_str:000000000000050b .LASF61
     /tmp/cciLBqOJ.s:5012   .debug_str:00000000000007c5 .LASF62
     /tmp/cciLBqOJ.s:4758   .debug_str:000000000000001e .LASF63
     /tmp/cciLBqOJ.s:5082   .debug_str:0000000000000987 .LASF64
     /tmp/cciLBqOJ.s:5088   .debug_str:00000000000009b2 .LASF65
     /tmp/cciLBqOJ.s:4976   .debug_str:00000000000006ab .LASF66
     /tmp/cciLBqOJ.s:4974   .debug_str:00000000000006a3 .LASF67
     /tmp/cciLBqOJ.s:5102   .debug_str:0000000000000ad1 .LASF68
     /tmp/cciLBqOJ.s:5160   .debug_str:0000000000000cbe .LASF69
     /tmp/cciLBqOJ.s:4986   .debug_str:00000000000006ed .LASF70
     /tmp/cciLBqOJ.s:4954   .debug_str:0000000000000606 .LASF71
     /tmp/cciLBqOJ.s:4862   .debug_str:0000000000000366 .LASF72
     /tmp/cciLBqOJ.s:4754   .debug_str:0000000000000005 .LASF73
     /tmp/cciLBqOJ.s:4946   .debug_str:00000000000005dc .LASF75
     /tmp/cciLBqOJ.s:5064   .debug_str:0000000000000915 .LASF74
     /tmp/cciLBqOJ.s:5032   .debug_str:000000000000084b .LASF76
     /tmp/cciLBqOJ.s:5042   .debug_str:000000000000088b .LASF77
     /tmp/cciLBqOJ.s:4762   .debug_str:0000000000000060 .LASF78
     /tmp/cciLBqOJ.s:5084   .debug_str:000000000000098f .LASF79
     /tmp/cciLBqOJ.s:4964   .debug_str:000000000000066c .LASF80
     /tmp/cciLBqOJ.s:4792   .debug_str:000000000000013e .LASF81
     /tmp/cciLBqOJ.s:5106   .debug_str:0000000000000aee .LASF82
     /tmp/cciLBqOJ.s:4882   .debug_str:00000000000003e5 .LASF83
     /tmp/cciLBqOJ.s:4910   .debug_str:00000000000004b9 .LASF84
     /tmp/cciLBqOJ.s:4856   .debug_str:0000000000000342 .LASF85
     /tmp/cciLBqOJ.s:4982   .debug_str:00000000000006c1 .LASF86
     /tmp/cciLBqOJ.s:4782   .debug_str:00000000000000ff .LASF87
     /tmp/cciLBqOJ.s:5162   .debug_str:0000000000000ccb .LASF88
     /tmp/cciLBqOJ.s:5038   .debug_str:0000000000000875 .LASF89
     /tmp/cciLBqOJ.s:4854   .debug_str:0000000000000328 .LASF90
     /tmp/cciLBqOJ.s:5028   .debug_str:0000000000000833 .LASF91
     /tmp/cciLBqOJ.s:4908   .debug_str:00000000000004a4 .LASF92
GAS LISTING /tmp/cciLBqOJ.s 			page 31


     /tmp/cciLBqOJ.s:4944   .debug_str:00000000000005d2 .LASF93
     /tmp/cciLBqOJ.s:5052   .debug_str:00000000000008be .LASF94
     /tmp/cciLBqOJ.s:5146   .debug_str:0000000000000c27 .LASF95
     /tmp/cciLBqOJ.s:5144   .debug_str:0000000000000c10 .LASF96
     /tmp/cciLBqOJ.s:5130   .debug_str:0000000000000b8b .LASF97
     /tmp/cciLBqOJ.s:5094   .debug_str:0000000000000a8e .LASF98
     /tmp/cciLBqOJ.s:4876   .debug_str:00000000000003cb .LASF99
     /tmp/cciLBqOJ.s:5000   .debug_str:000000000000075d .LASF100
     /tmp/cciLBqOJ.s:5108   .debug_str:0000000000000b05 .LASF101
     /tmp/cciLBqOJ.s:4818   .debug_str:00000000000001ff .LASF102
     /tmp/cciLBqOJ.s:5100   .debug_str:0000000000000ac3 .LASF103
     /tmp/cciLBqOJ.s:5022   .debug_str:0000000000000808 .LASF104
     /tmp/cciLBqOJ.s:4820   .debug_str:0000000000000210 .LASF105
     /tmp/cciLBqOJ.s:4760   .debug_str:0000000000000038 .LASF106
     /tmp/cciLBqOJ.s:5076   .debug_str:0000000000000965 .LASF107
     /tmp/cciLBqOJ.s:5132   .debug_str:0000000000000b93 .LASF108
     /tmp/cciLBqOJ.s:4980   .debug_str:00000000000006bc .LASF207
     /tmp/cciLBqOJ.s:5058   .debug_str:00000000000008ed .LASF109
     /tmp/cciLBqOJ.s:4764   .debug_str:000000000000006c .LASF111
     /tmp/cciLBqOJ.s:5110   .debug_str:0000000000000b0a .LASF112
     /tmp/cciLBqOJ.s:4828   .debug_str:0000000000000259 .LASF113
     /tmp/cciLBqOJ.s:4752   .debug_str:0000000000000000 .LASF114
     /tmp/cciLBqOJ.s:4948   .debug_str:00000000000005e9 .LASF115
     /tmp/cciLBqOJ.s:5080   .debug_str:000000000000097e .LASF116
     /tmp/cciLBqOJ.s:5062   .debug_str:0000000000000909 .LASF117
     /tmp/cciLBqOJ.s:4832   .debug_str:000000000000027a .LASF118
     /tmp/cciLBqOJ.s:4756   .debug_str:0000000000000015 .LASF119
     /tmp/cciLBqOJ.s:4972   .debug_str:0000000000000697 .LASF120
     /tmp/cciLBqOJ.s:4790   .debug_str:0000000000000137 .LASF121
     /tmp/cciLBqOJ.s:4920   .debug_str:000000000000053b .LASF122
     /tmp/cciLBqOJ.s:5148   .debug_str:0000000000000c33 .LASF123
     /tmp/cciLBqOJ.s:4796   .debug_str:0000000000000155 .LASF124
     /tmp/cciLBqOJ.s:4932   .debug_str:0000000000000575 .LASF126
     /tmp/cciLBqOJ.s:4830   .debug_str:0000000000000271 .LASF125
     /tmp/cciLBqOJ.s:4810   .debug_str:00000000000001c1 .LASF127
     /tmp/cciLBqOJ.s:5120   .debug_str:0000000000000b4a .LASF128
     /tmp/cciLBqOJ.s:5016   .debug_str:00000000000007e3 .LASF129
     /tmp/cciLBqOJ.s:5126   .debug_str:0000000000000b7b .LASF130
     /tmp/cciLBqOJ.s:4794   .debug_str:000000000000014a .LASF131
     /tmp/cciLBqOJ.s:4878   .debug_str:00000000000003d4 .LASF133
     /tmp/cciLBqOJ.s:4888   .debug_str:000000000000041a .LASF135
     /tmp/cciLBqOJ.s:5112   .debug_str:0000000000000b15 .LASF136
     /tmp/cciLBqOJ.s:5104   .debug_str:0000000000000ad9 .LASF137
     /tmp/cciLBqOJ.s:5026   .debug_str:000000000000082a .LASF138
     /tmp/cciLBqOJ.s:4772   .debug_str:00000000000000b0 .LASF139
     /tmp/cciLBqOJ.s:5002   .debug_str:0000000000000770 .LASF140
     /tmp/cciLBqOJ.s:5008   .debug_str:000000000000079e .LASF141
     /tmp/cciLBqOJ.s:4970   .debug_str:0000000000000690 .LASF142
     /tmp/cciLBqOJ.s:5036   .debug_str:0000000000000862 .LASF143
     /tmp/cciLBqOJ.s:5136   .debug_str:0000000000000bc4 .LASF144
     /tmp/cciLBqOJ.s:5096   .debug_str:0000000000000aa0 .LASF145
     /tmp/cciLBqOJ.s:4966   .debug_str:0000000000000683 .LASF146
     /tmp/cciLBqOJ.s:4858   .debug_str:000000000000034d .LASF147
     /tmp/cciLBqOJ.s:4936   .debug_str:00000000000005a1 .LASF148
     /tmp/cciLBqOJ.s:5010   .debug_str:00000000000007b1 .LASF149
     /tmp/cciLBqOJ.s:5164   .debug_str:0000000000000ce6 .LASF150
     /tmp/cciLBqOJ.s:4900   .debug_str:0000000000000461 .LASF151
GAS LISTING /tmp/cciLBqOJ.s 			page 32


     /tmp/cciLBqOJ.s:5074   .debug_str:000000000000095e .LASF152
     /tmp/cciLBqOJ.s:5046   .debug_str:000000000000089c .LASF153
     /tmp/cciLBqOJ.s:5048   .debug_str:00000000000008af .LASF154
     /tmp/cciLBqOJ.s:4808   .debug_str:00000000000001ae .LASF155
     /tmp/cciLBqOJ.s:4834   .debug_str:0000000000000281 .LASF156
     /tmp/cciLBqOJ.s:4886   .debug_str:0000000000000408 .LASF157
     /tmp/cciLBqOJ.s:4898   .debug_str:000000000000045b .LASF158
     /tmp/cciLBqOJ.s:4824   .debug_str:0000000000000236 .LASF159
     /tmp/cciLBqOJ.s:4768   .debug_str:0000000000000089 .LASF160
     /tmp/cciLBqOJ.s:5086   .debug_str:000000000000099a .LASF161
     /tmp/cciLBqOJ.s:4950   .debug_str:00000000000005ef .LASF162
     /tmp/cciLBqOJ.s:5158   .debug_str:0000000000000ca6 .LASF163
     /tmp/cciLBqOJ.s:5128   .debug_str:0000000000000b81 .LASF164
     /tmp/cciLBqOJ.s:5142   .debug_str:0000000000000bfa .LASF165
     /tmp/cciLBqOJ.s:4806   .debug_str:00000000000001a4 .LASF166
     /tmp/cciLBqOJ.s:4958   .debug_str:000000000000062c .LASF167
     /tmp/cciLBqOJ.s:5134   .debug_str:0000000000000bb5 .LASF168
     /tmp/cciLBqOJ.s:4872   .debug_str:00000000000003a1 .LASF169
     /tmp/cciLBqOJ.s:4992   .debug_str:0000000000000715 .LASF170
     /tmp/cciLBqOJ.s:4912   .debug_str:00000000000004d0 .LASF171
     /tmp/cciLBqOJ.s:5092   .debug_str:0000000000000a7e .LASF172
     /tmp/cciLBqOJ.s:5118   .debug_str:0000000000000b2d .LASF173
     /tmp/cciLBqOJ.s:4940   .debug_str:00000000000005b8 .LASF174
     /tmp/cciLBqOJ.s:4778   .debug_str:00000000000000d8 .LASF175
     /tmp/cciLBqOJ.s:4788   .debug_str:0000000000000126 .LASF176
     /tmp/cciLBqOJ.s:4844   .debug_str:00000000000002d9 .LASF177
     /tmp/cciLBqOJ.s:5014   .debug_str:00000000000007ce .LASF178
     /tmp/cciLBqOJ.s:4826   .debug_str:0000000000000248 .LASF179
     /tmp/cciLBqOJ.s:4860   .debug_str:0000000000000361 .LASF180
     /tmp/cciLBqOJ.s:4996   .debug_str:0000000000000733 .LASF182
     /tmp/cciLBqOJ.s:4896   .debug_str:0000000000000456 .LASF181
     /tmp/cciLBqOJ.s:4786   .debug_str:0000000000000113 .LASF183
     /tmp/cciLBqOJ.s:697    .text:00000000000003d0 .LFB56
     /tmp/cciLBqOJ.s:823    .text:0000000000000484 .LFE56
     /tmp/cciLBqOJ.s:5140   .debug_str:0000000000000bf3 .LASF185
     /tmp/cciLBqOJ.s:4285   .debug_loc:0000000000000000 .LLST26
     /tmp/cciLBqOJ.s:4718   .debug_ranges:0000000000000000 .Ldebug_ranges0
     /tmp/cciLBqOJ.s:5070   .debug_str:0000000000000951 .LASF184
     /tmp/cciLBqOJ.s:4310   .debug_loc:0000000000000062 .LLST28
     /tmp/cciLBqOJ.s:759    .text:000000000000041c .LBB99
     /tmp/cciLBqOJ.s:4317   .debug_loc:0000000000000085 .LLST29
     /tmp/cciLBqOJ.s:4328   .debug_loc:00000000000000bb .LLST30
     /tmp/cciLBqOJ.s:4339   .debug_loc:00000000000000f1 .LLST31
     /tmp/cciLBqOJ.s:766    .text:0000000000000428 .LBB101
     /tmp/cciLBqOJ.s:773    .text:0000000000000430 .LBE101
     /tmp/cciLBqOJ.s:4350   .debug_loc:0000000000000127 .LLST32
     /tmp/cciLBqOJ.s:4358   .debug_loc:000000000000014b .LLST33
     /tmp/cciLBqOJ.s:4365   .debug_loc:000000000000016e .LLST34
     /tmp/cciLBqOJ.s:765    .text:0000000000000428 .LVL72
     /tmp/cciLBqOJ.s:798    .text:0000000000000460 .LVL76
     /tmp/cciLBqOJ.s:806    .text:0000000000000474 .LVL77
     /tmp/cciLBqOJ.s:723    .text:00000000000003f8 .LBB96
     /tmp/cciLBqOJ.s:730    .text:00000000000003fc .LBE96
     /tmp/cciLBqOJ.s:4372   .debug_loc:0000000000000191 .LLST27
     /tmp/cciLBqOJ.s:287    .text:0000000000000160 .LFB55
     /tmp/cciLBqOJ.s:351    .text:00000000000001c8 .LFE55
     /tmp/cciLBqOJ.s:4379   .debug_loc:00000000000001b4 .LLST13
GAS LISTING /tmp/cciLBqOJ.s 			page 33


     /tmp/cciLBqOJ.s:305    .text:000000000000017c .LBB57
     /tmp/cciLBqOJ.s:312    .text:0000000000000180 .LBE57
     /tmp/cciLBqOJ.s:4390   .debug_loc:00000000000001ea .LLST14
     /tmp/cciLBqOJ.s:319    .text:000000000000018c .LVL26
     /tmp/cciLBqOJ.s:327    .text:00000000000001a4 .LVL27
     /tmp/cciLBqOJ.s:348    .text:00000000000001c4 .LVL30
     /tmp/cciLBqOJ.s:493    .text:00000000000002a0 .LFB54
     /tmp/cciLBqOJ.s:691    .text:00000000000003d0 .LFE54
     /tmp/cciLBqOJ.s:515    .text:00000000000002c4 .LBB72
     /tmp/cciLBqOJ.s:526    .text:00000000000002d0 .LBE72
     /tmp/cciLBqOJ.s:4397   .debug_loc:000000000000020d .LLST16
     /tmp/cciLBqOJ.s:4405   .debug_loc:0000000000000231 .LLST17
     /tmp/cciLBqOJ.s:527    .text:00000000000002d0 .LBB74
     /tmp/cciLBqOJ.s:4412   .debug_loc:0000000000000254 .LLST18
     /tmp/cciLBqOJ.s:4423   .debug_loc:000000000000028a .LLST19
     /tmp/cciLBqOJ.s:4434   .debug_loc:00000000000002c0 .LLST20
     /tmp/cciLBqOJ.s:537    .text:00000000000002e0 .LVL45
     /tmp/cciLBqOJ.s:553    .text:00000000000002f8 .LBB77
     /tmp/cciLBqOJ.s:559    .text:00000000000002fc .LBE77
     /tmp/cciLBqOJ.s:4441   .debug_loc:00000000000002e3 .LLST21
     /tmp/cciLBqOJ.s:595    .text:0000000000000334 .LBB80
     /tmp/cciLBqOJ.s:601    .text:0000000000000338 .LBE80
     /tmp/cciLBqOJ.s:4448   .debug_loc:0000000000000306 .LLST22
     /tmp/cciLBqOJ.s:639    .text:000000000000037c .LBB82
     /tmp/cciLBqOJ.s:4455   .debug_loc:0000000000000329 .LLST23
     /tmp/cciLBqOJ.s:4466   .debug_loc:000000000000035f .LLST24
     /tmp/cciLBqOJ.s:4477   .debug_loc:0000000000000395 .LLST25
     /tmp/cciLBqOJ.s:662    .text:00000000000003a8 .LVL60
     /tmp/cciLBqOJ.s:544    .text:00000000000002ec .LVL46
     /tmp/cciLBqOJ.s:608    .text:0000000000000344 .LVL55
     /tmp/cciLBqOJ.s:630    .text:0000000000000368 .LVL56
     /tmp/cciLBqOJ.s:669    .text:00000000000003b4 .LVL61
     /tmp/cciLBqOJ.s:261    .text:0000000000000160 .LFE53
     /tmp/cciLBqOJ.s:4484   .debug_loc:00000000000003b8 .LLST2
     /tmp/cciLBqOJ.s:4506   .debug_loc:0000000000000417 .LLST3
     /tmp/cciLBqOJ.s:4528   .debug_loc:0000000000000476 .LLST4
     /tmp/cciLBqOJ.s:101    .text:000000000000006c .LBB45
     /tmp/cciLBqOJ.s:114    .text:000000000000007c .LBE45
     /tmp/cciLBqOJ.s:4567   .debug_loc:0000000000000513 .LLST5
     /tmp/cciLBqOJ.s:109    .text:0000000000000078 .LVL7
     /tmp/cciLBqOJ.s:115    .text:000000000000007c .LBB47
     /tmp/cciLBqOJ.s:4576   .debug_loc:0000000000000538 .LLST6
     /tmp/cciLBqOJ.s:4618   .debug_loc:00000000000005d8 .LLST7
     /tmp/cciLBqOJ.s:4629   .debug_loc:000000000000060e .LLST8
     /tmp/cciLBqOJ.s:4640   .debug_loc:0000000000000644 .LLST9
     /tmp/cciLBqOJ.s:164    .text:00000000000000c8 .LBB49
     /tmp/cciLBqOJ.s:173    .text:00000000000000d4 .LBE49
     /tmp/cciLBqOJ.s:4651   .debug_loc:000000000000067a .LLST10
     /tmp/cciLBqOJ.s:229    .text:000000000000012c .LBB51
     /tmp/cciLBqOJ.s:237    .text:0000000000000138 .LBE51
     /tmp/cciLBqOJ.s:4658   .debug_loc:000000000000069d .LLST11
     /tmp/cciLBqOJ.s:154    .text:00000000000000bc .LVL10
     /tmp/cciLBqOJ.s:227    .text:000000000000012c .LVL19
     /tmp/cciLBqOJ.s:246    .text:0000000000000148 .LBB55
     /tmp/cciLBqOJ.s:259    .text:0000000000000160 .LBE55
     /tmp/cciLBqOJ.s:4665   .debug_loc:00000000000006c0 .LLST12
     /tmp/cciLBqOJ.s:252    .text:0000000000000154 .LVL22
GAS LISTING /tmp/cciLBqOJ.s 			page 34


     /tmp/cciLBqOJ.s:256    .text:0000000000000160 .LVL23
     /tmp/cciLBqOJ.s:405    .text:0000000000000200 .LFB52
     /tmp/cciLBqOJ.s:487    .text:00000000000002a0 .LFE52
     /tmp/cciLBqOJ.s:459    .text:000000000000025c .LBB60
     /tmp/cciLBqOJ.s:483    .text:000000000000029c .LBE60
     /tmp/cciLBqOJ.s:463    .text:0000000000000264 .LVL37
     /tmp/cciLBqOJ.s:470    .text:0000000000000278 .LVL39
     /tmp/cciLBqOJ.s:477    .text:000000000000028c .LVL40
     /tmp/cciLBqOJ.s:482    .text:000000000000029c .LVL41
     /tmp/cciLBqOJ.s:421    .text:000000000000021c .LVL34
     /tmp/cciLBqOJ.s:443    .text:0000000000000248 .LVL36
     /tmp/cciLBqOJ.s:38     .text:0000000000000020 .LFB51
     /tmp/cciLBqOJ.s:68     .text:0000000000000040 .LFE51
     /tmp/cciLBqOJ.s:50     .text:000000000000002c .LBB30
     /tmp/cciLBqOJ.s:59     .text:0000000000000034 .LBE30
     /tmp/cciLBqOJ.s:4672   .debug_loc:00000000000006e3 .LLST0
     /tmp/cciLBqOJ.s:4680   .debug_loc:0000000000000707 .LLST1
     /tmp/cciLBqOJ.s:357    .text:00000000000001c8 .LFB50
     /tmp/cciLBqOJ.s:391    .text:0000000000000200 .LFE50
     /tmp/cciLBqOJ.s:4687   .debug_loc:000000000000072a .LLST15
     /tmp/cciLBqOJ.s:375    .text:00000000000001e8 .LVL32
     /tmp/cciLBqOJ.s:10     .text:0000000000000000 .LFB49
     /tmp/cciLBqOJ.s:32     .text:0000000000000020 .LFE49
     /tmp/cciLBqOJ.s:4846   .debug_str:00000000000002ef .LASF186
     /tmp/cciLBqOJ.s:4956   .debug_str:0000000000000616 .LASF187
     /tmp/cciLBqOJ.s:4880   .debug_str:00000000000003df .LASF188
     /tmp/cciLBqOJ.s:4850   .debug_str:0000000000000313 .LASF189
     /tmp/cciLBqOJ.s:4978   .debug_str:00000000000006b5 .LASF190
     /tmp/cciLBqOJ.s:5150   .debug_str:0000000000000c49 .LASF191
     /tmp/cciLBqOJ.s:4822   .debug_str:000000000000021e .LASF192
     /tmp/cciLBqOJ.s:4812   .debug_str:00000000000001d4 .LASF193
     /tmp/cciLBqOJ.s:4870   .debug_str:0000000000000395 .LASF195
     /tmp/cciLBqOJ.s:4842   .debug_str:00000000000002ca .LASF194
     /tmp/cciLBqOJ.s:4990   .debug_str:000000000000070c .LASF196
     /tmp/cciLBqOJ.s:4836   .debug_str:0000000000000287 .LASF197
     /tmp/cciLBqOJ.s:4952   .debug_str:00000000000005fa .LASF198
     /tmp/cciLBqOJ.s:700    .text:00000000000003d0 .LVL65
     /tmp/cciLBqOJ.s:733    .text:0000000000000400 .LVL68
     /tmp/cciLBqOJ.s:750    .text:0000000000000418 .LVL69
     /tmp/cciLBqOJ.s:763    .text:0000000000000420 .LVL71
     /tmp/cciLBqOJ.s:794    .text:0000000000000458 .LVL75
     /tmp/cciLBqOJ.s:809    .text:0000000000000478 .LVL78
     /tmp/cciLBqOJ.s:758    .text:000000000000041c .LVL70
     /tmp/cciLBqOJ.s:787    .text:000000000000044c .LVL74
     /tmp/cciLBqOJ.s:771    .text:0000000000000430 .LVL73
     /tmp/cciLBqOJ.s:721    .text:00000000000003f8 .LVL66
     /tmp/cciLBqOJ.s:728    .text:00000000000003fc .LVL67
     /tmp/cciLBqOJ.s:303    .text:000000000000017c .LVL24
     /tmp/cciLBqOJ.s:337    .text:00000000000001b0 .LVL28
     /tmp/cciLBqOJ.s:341    .text:00000000000001b8 .LVL29
     /tmp/cciLBqOJ.s:310    .text:0000000000000180 .LVL25
     /tmp/cciLBqOJ.s:514    .text:00000000000002c4 .LVL42
     /tmp/cciLBqOJ.s:523    .text:00000000000002d0 .LVL43
     /tmp/cciLBqOJ.s:563    .text:0000000000000300 .LVL49
     /tmp/cciLBqOJ.s:587    .text:000000000000032c .LVL52
     /tmp/cciLBqOJ.s:570    .text:0000000000000308 .LVL50
     /tmp/cciLBqOJ.s:582    .text:0000000000000324 .LVL51
GAS LISTING /tmp/cciLBqOJ.s 			page 35


     /tmp/cciLBqOJ.s:534    .text:00000000000002d8 .LVL44
     /tmp/cciLBqOJ.s:552    .text:00000000000002f8 .LVL47
     /tmp/cciLBqOJ.s:557    .text:00000000000002fc .LVL48
     /tmp/cciLBqOJ.s:594    .text:0000000000000334 .LVL53
     /tmp/cciLBqOJ.s:599    .text:0000000000000338 .LVL54
     /tmp/cciLBqOJ.s:638    .text:000000000000037c .LVL57
     /tmp/cciLBqOJ.s:671    .text:00000000000003b8 .LVL62
     /tmp/cciLBqOJ.s:683    .text:00000000000003c8 .LVL64
     /tmp/cciLBqOJ.s:645    .text:0000000000000384 .LVL58
     /tmp/cciLBqOJ.s:678    .text:00000000000003c0 .LVL63
     /tmp/cciLBqOJ.s:659    .text:00000000000003a0 .LVL59
     /tmp/cciLBqOJ.s:79     .text:0000000000000040 .LVL4
     /tmp/cciLBqOJ.s:106    .text:0000000000000070 .LVL6
     /tmp/cciLBqOJ.s:214    .text:0000000000000118 .LVL17
     /tmp/cciLBqOJ.s:218    .text:0000000000000120 .LVL18
     /tmp/cciLBqOJ.s:211    .text:0000000000000114 .LVL16
     /tmp/cciLBqOJ.s:136    .text:00000000000000a0 .LVL9
     /tmp/cciLBqOJ.s:156    .text:00000000000000c0 .LVL11
     /tmp/cciLBqOJ.s:160    .text:00000000000000c4 .LVL12
     /tmp/cciLBqOJ.s:162    .text:00000000000000c8 .LVL13
     /tmp/cciLBqOJ.s:100    .text:000000000000006c .LVL5
     /tmp/cciLBqOJ.s:112    .text:000000000000007c .LVL8
     /tmp/cciLBqOJ.s:194    .text:00000000000000fc .LVL15
     /tmp/cciLBqOJ.s:171    .text:00000000000000d4 .LVL14
     /tmp/cciLBqOJ.s:235    .text:0000000000000138 .LVL20
     /tmp/cciLBqOJ.s:243    .text:0000000000000148 .LVL21
     /tmp/cciLBqOJ.s:49     .text:000000000000002c .LVL2
     /tmp/cciLBqOJ.s:57     .text:0000000000000034 .LVL3
     /tmp/cciLBqOJ.s:360    .text:00000000000001c8 .LVL31
     /tmp/cciLBqOJ.s:386    .text:00000000000001f8 .LVL33
     /tmp/cciLBqOJ.s:859    .debug_info:0000000000000000 .Ldebug_info0
     /tmp/cciLBqOJ.s:196    .text:00000000000000fc .LBE47
     /tmp/cciLBqOJ.s:221    .text:0000000000000120 .LBB54
     /tmp/cciLBqOJ.s:245    .text:0000000000000148 .LBE54
     /tmp/cciLBqOJ.s:540    .text:00000000000002e0 .LBE74
     /tmp/cciLBqOJ.s:564    .text:0000000000000300 .LBB79
     /tmp/cciLBqOJ.s:590    .text:000000000000032c .LBE79
     /tmp/cciLBqOJ.s:665    .text:00000000000003a8 .LBE82
     /tmp/cciLBqOJ.s:673    .text:00000000000003b8 .LBB85
     /tmp/cciLBqOJ.s:686    .text:00000000000003c8 .LBE85
     /tmp/cciLBqOJ.s:754    .text:0000000000000418 .LBB98
     /tmp/cciLBqOJ.s:807    .text:0000000000000474 .LBE98
     /tmp/cciLBqOJ.s:811    .text:0000000000000478 .LBB105
     /tmp/cciLBqOJ.s:820    .text:0000000000000484 .LBE105
     /tmp/cciLBqOJ.s:789    .text:000000000000044c .LBE99
     /tmp/cciLBqOJ.s:812    .text:0000000000000478 .LBB104
     /tmp/cciLBqOJ.s:819    .text:0000000000000484 .LBE104
     /tmp/cciLBqOJ.s:264    .gcc_except_table:0000000000000000 .LLSDA53

UNDEFINED SYMBOLS
_ZN3MEM8memAllocEm
_Znwm
_ZN3MEM7memFreeEPv
_Unwind_Resume
__gxx_personality_v0
_ZN9Scheduler3getEv
_ZN3TCB13contextSwitchEPNS_7ContextES1_
GAS LISTING /tmp/cciLBqOJ.s 			page 36


_ZN9Scheduler3putEP3TCB
_ZN5Riscv10popSppSpieEv
_Z11thread_exitv
_Z11printStringPKc
_Z8printIntiii
_ZdlPv
_ZN9Scheduler10getSchSizeEv
